Archive member included to satisfy reference by file (symbol)

.\CortexM3\ARM_GCC_541\Debug\Scope-CY8CKIT-59.a(CyDmac.o)
                              .\CortexM3\ARM_GCC_541\Debug\Cm3Start.o (CyDmacConfigure)
.\CortexM3\ARM_GCC_541\Debug\Scope-CY8CKIT-59.a(CyLib.o)
                              .\CortexM3\ARM_GCC_541\Debug\Cm3Start.o (CyResetStatus)
.\CortexM3\ARM_GCC_541\Debug\Scope-CY8CKIT-59.a(cyPm.o)
                              .\CortexM3\ARM_GCC_541\Debug\Scope-CY8CKIT-59.a(CyLib.o) (CyPmReadStatus)
.\CortexM3\ARM_GCC_541\Debug\Scope-CY8CKIT-59.a(ADC_2.o)
                              .\CortexM3\ARM_GCC_541\Debug\main.o (ADC_2_Start)
.\CortexM3\ARM_GCC_541\Debug\Scope-CY8CKIT-59.a(ADC_2_INT.o)
                              .\CortexM3\ARM_GCC_541\Debug\Scope-CY8CKIT-59.a(ADC_2.o) (ADC_2_ISR)
.\CortexM3\ARM_GCC_541\Debug\Scope-CY8CKIT-59.a(ADC_1.o)
                              .\CortexM3\ARM_GCC_541\Debug\main.o (ADC_1_Start)
.\CortexM3\ARM_GCC_541\Debug\Scope-CY8CKIT-59.a(ADC_1_INT.o)
                              .\CortexM3\ARM_GCC_541\Debug\Scope-CY8CKIT-59.a(ADC_1.o) (ADC_1_ISR)
.\CortexM3\ARM_GCC_541\Debug\Scope-CY8CKIT-59.a(USBUART.o)
                              .\CortexM3\ARM_GCC_541\Debug\main.o (USBUART_Start)
.\CortexM3\ARM_GCC_541\Debug\Scope-CY8CKIT-59.a(USBUART_cdc.o)
                              .\CortexM3\ARM_GCC_541\Debug\main.o (USBUART_CDC_Init)
.\CortexM3\ARM_GCC_541\Debug\Scope-CY8CKIT-59.a(USBUART_drv.o)
                              .\CortexM3\ARM_GCC_541\Debug\Scope-CY8CKIT-59.a(USBUART.o) (USBUART_EP)
.\CortexM3\ARM_GCC_541\Debug\Scope-CY8CKIT-59.a(USBUART_episr.o)
                              .\CortexM3\ARM_GCC_541\Debug\Scope-CY8CKIT-59.a(USBUART.o) (USBUART_EP_1_ISR)
.\CortexM3\ARM_GCC_541\Debug\Scope-CY8CKIT-59.a(USBUART_pm.o)
                              .\CortexM3\ARM_GCC_541\Debug\Scope-CY8CKIT-59.a(USBUART.o) (USBUART_DP_ISR)
.\CortexM3\ARM_GCC_541\Debug\Scope-CY8CKIT-59.a(USBUART_std.o)
                              .\CortexM3\ARM_GCC_541\Debug\Scope-CY8CKIT-59.a(USBUART_drv.o) (USBUART_HandleStandardRqst)
.\CortexM3\ARM_GCC_541\Debug\Scope-CY8CKIT-59.a(USBUART_vnd.o)
                              .\CortexM3\ARM_GCC_541\Debug\Scope-CY8CKIT-59.a(USBUART_drv.o) (USBUART_HandleVendorRqst)
.\CortexM3\ARM_GCC_541\Debug\Scope-CY8CKIT-59.a(SampleClock.o)
                              .\CortexM3\ARM_GCC_541\Debug\main.o (SampleClock_SetDividerRegister)
.\CortexM3\ARM_GCC_541\Debug\Scope-CY8CKIT-59.a(Vtrigger.o)
                              .\CortexM3\ARM_GCC_541\Debug\main.o (Vtrigger_Start)
.\CortexM3\ARM_GCC_541\Debug\Scope-CY8CKIT-59.a(Amux_Trigger.o)
                              .\CortexM3\ARM_GCC_541\Debug\main.o (Amux_Trigger_FastSelect)
.\CortexM3\ARM_GCC_541\Debug\Scope-CY8CKIT-59.a(DMA_Channel_1_dma.o)
                              .\CortexM3\ARM_GCC_541\Debug\main.o (DMA_Channel_1_DmaInitialize)
.\CortexM3\ARM_GCC_541\Debug\Scope-CY8CKIT-59.a(DMA_Channel_2_dma.o)
                              .\CortexM3\ARM_GCC_541\Debug\main.o (DMA_Channel_2_DmaInitialize)
.\CortexM3\ARM_GCC_541\Debug\Scope-CY8CKIT-59.a(PWM_Sample_Buffer.o)
                              .\CortexM3\ARM_GCC_541\Debug\main.o (PWM_Sample_Buffer_Start)
.\CortexM3\ARM_GCC_541\Debug\Scope-CY8CKIT-59.a(USBUART_Dp.o)
                              .\CortexM3\ARM_GCC_541\Debug\Scope-CY8CKIT-59.a(USBUART.o) (USBUART_Dp_ClearInterrupt)
.\CortexM3\ARM_GCC_541\Debug\Scope-CY8CKIT-59.a(Trigger_Control.o)
                              .\CortexM3\ARM_GCC_541\Debug\main.o (Trigger_Control_Write)
.\CortexM3\ARM_GCC_541\Debug\Scope-CY8CKIT-59.a(Trigger_Status.o)
                              .\CortexM3\ARM_GCC_541\Debug\main.o (Trigger_Status_Read)
.\CortexM3\ARM_GCC_541\Debug\Scope-CY8CKIT-59.a(Trigger_Comp.o)
                              .\CortexM3\ARM_GCC_541\Debug\main.o (Trigger_Comp_Start)
.\CortexM3\ARM_GCC_541\Debug\Scope-CY8CKIT-59.a(PRS.o)
                              .\CortexM3\ARM_GCC_541\Debug\main.o (PRS_Start)
.\CortexM3\ARM_GCC_541\Debug\Scope-CY8CKIT-59.a(Wave_Control.o)
                              .\CortexM3\ARM_GCC_541\Debug\main.o (Wave_Control_Write)
.\CortexM3\ARM_GCC_541\Debug\Scope-CY8CKIT-59.a(Digital_Out_Control.o)
                              .\CortexM3\ARM_GCC_541\Debug\main.o (Digital_Out_Control_Write)
.\CortexM3\ARM_GCC_541\Debug\Scope-CY8CKIT-59.a(Digital_Input_Status.o)
                              .\CortexM3\ARM_GCC_541\Debug\main.o (Digital_Input_Status_Read)
.\CortexM3\ARM_GCC_541\Debug\Scope-CY8CKIT-59.a(PWM_Clock.o)
                              .\CortexM3\ARM_GCC_541\Debug\main.o (PWM_Clock_SetDividerRegister)
.\CortexM3\ARM_GCC_541\Debug\Scope-CY8CKIT-59.a(Digital_PWM.o)
                              .\CortexM3\ARM_GCC_541\Debug\main.o (Digital_PWM_Start)
.\CortexM3\ARM_GCC_541\Debug\Scope-CY8CKIT-59.a(ScopeA_Buf.o)
                              .\CortexM3\ARM_GCC_541\Debug\main.o (ScopeA_Buf_SetGain)
.\CortexM3\ARM_GCC_541\Debug\Scope-CY8CKIT-59.a(ScopeB_Buf.o)
                              .\CortexM3\ARM_GCC_541\Debug\main.o (ScopeB_Buf_SetGain)
.\CortexM3\ARM_GCC_541\Debug\Scope-CY8CKIT-59.a(WaveB_DAC.o)
                              .\CortexM3\ARM_GCC_541\Debug\main.o (WaveB_DAC_Wave1Setup)
.\CortexM3\ARM_GCC_541\Debug\Scope-CY8CKIT-59.a(WaveB_Buf.o)
                              .\CortexM3\ARM_GCC_541\Debug\main.o (WaveB_Buf_Start)
.\CortexM3\ARM_GCC_541\Debug\Scope-CY8CKIT-59.a(AuxDAC_1.o)
                              .\CortexM3\ARM_GCC_541\Debug\main.o (AuxDAC_1_Start)
.\CortexM3\ARM_GCC_541\Debug\Scope-CY8CKIT-59.a(AMux_1.o)
                              .\CortexM3\ARM_GCC_541\Debug\main.o (AMux_1_Select)
.\CortexM3\ARM_GCC_541\Debug\Scope-CY8CKIT-59.a(AuxDAC_Buf.o)
                              .\CortexM3\ARM_GCC_541\Debug\main.o (AuxDAC_Buf_Start)
.\CortexM3\ARM_GCC_541\Debug\Scope-CY8CKIT-59.a(WaveA_DAC.o)
                              .\CortexM3\ARM_GCC_541\Debug\main.o (WaveA_DAC_Wave1Setup)
.\CortexM3\ARM_GCC_541\Debug\Scope-CY8CKIT-59.a(WaveA_Buf.o)
                              .\CortexM3\ARM_GCC_541\Debug\main.o (WaveA_Buf_Start)
.\CortexM3\ARM_GCC_541\Debug\Scope-CY8CKIT-59.a(WaveA_Clock.o)
                              .\CortexM3\ARM_GCC_541\Debug\main.o (WaveA_Clock_SetDividerRegister)
.\CortexM3\ARM_GCC_541\Debug\Scope-CY8CKIT-59.a(AMux_2.o)
                              .\CortexM3\ARM_GCC_541\Debug\main.o (AMux_2_Select)
.\CortexM3\ARM_GCC_541\Debug\Scope-CY8CKIT-59.a(ScopeC_Buf.o)
                              .\CortexM3\ARM_GCC_541\Debug\main.o (ScopeC_Buf_SetGain)
.\CortexM3\ARM_GCC_541\Debug\Scope-CY8CKIT-59.a(ScopeD_Buf.o)
                              .\CortexM3\ARM_GCC_541\Debug\main.o (ScopeD_Buf_SetGain)
.\CortexM3\ARM_GCC_541\Debug\Scope-CY8CKIT-59.a(WaveB_DAC_Wave1_DMA_dma.o)
                              .\CortexM3\ARM_GCC_541\Debug\Scope-CY8CKIT-59.a(WaveB_DAC.o) (WaveB_DAC_Wave1_DMA_DmaInitialize)
.\CortexM3\ARM_GCC_541\Debug\Scope-CY8CKIT-59.a(WaveB_DAC_Wave2_DMA_dma.o)
                              .\CortexM3\ARM_GCC_541\Debug\Scope-CY8CKIT-59.a(WaveB_DAC.o) (WaveB_DAC_Wave2_DMA_DmaInitialize)
.\CortexM3\ARM_GCC_541\Debug\Scope-CY8CKIT-59.a(WaveB_DAC_VDAC8.o)
                              .\CortexM3\ARM_GCC_541\Debug\Scope-CY8CKIT-59.a(WaveB_DAC.o) (WaveB_DAC_VDAC8_Init)
.\CortexM3\ARM_GCC_541\Debug\Scope-CY8CKIT-59.a(WaveA_DAC_Wave1_DMA_dma.o)
                              .\CortexM3\ARM_GCC_541\Debug\Scope-CY8CKIT-59.a(WaveA_DAC.o) (WaveA_DAC_Wave1_DMA_DmaInitialize)
.\CortexM3\ARM_GCC_541\Debug\Scope-CY8CKIT-59.a(WaveA_DAC_Wave2_DMA_dma.o)
                              .\CortexM3\ARM_GCC_541\Debug\Scope-CY8CKIT-59.a(WaveA_DAC.o) (WaveA_DAC_Wave2_DMA_DmaInitialize)
.\CortexM3\ARM_GCC_541\Debug\Scope-CY8CKIT-59.a(WaveA_DAC_VDAC8.o)
                              .\CortexM3\ARM_GCC_541\Debug\Scope-CY8CKIT-59.a(WaveA_DAC.o) (WaveA_DAC_VDAC8_Init)
.\CortexM3\ARM_GCC_541\Debug\Scope-CY8CKIT-59.a(NoiseA_Clock.o)
                              .\CortexM3\ARM_GCC_541\Debug\main.o (NoiseA_Clock_SetDividerRegister)
.\CortexM3\ARM_GCC_541\Debug\Scope-CY8CKIT-59.a(VRef_Buf.o)
                              .\CortexM3\ARM_GCC_541\Debug\main.o (VRef_Buf_Start)
.\CortexM3\ARM_GCC_541\Debug\Scope-CY8CKIT-59.a(CyBootAsmGnu.o)
                              .\CortexM3\ARM_GCC_541\Debug\cyfitter_cfg.o (CyDelayCycles)
.\CortexM3\ARM_GCC_541\Debug\Scope-CY8CKIT-59.a(CyFlash.o)
                              .\CortexM3\ARM_GCC_541\Debug\Scope-CY8CKIT-59.a(cyPm.o) (CyFlash_SetWaitCycles)
.\CortexM3\ARM_GCC_541\Debug\Scope-CY8CKIT-59.a(CySpc.o)
                              .\CortexM3\ARM_GCC_541\Debug\Scope-CY8CKIT-59.a(CyFlash.o) (CySpcStart)
.\CortexM3\ARM_GCC_541\Debug\Scope-CY8CKIT-59.a(USBUART_cls.o)
                              .\CortexM3\ARM_GCC_541\Debug\Scope-CY8CKIT-59.a(USBUART_drv.o) (USBUART_DispatchClassRqst)
.\CortexM3\ARM_GCC_541\Debug\Scope-CY8CKIT-59.a(USBUART_descr.o)
                              .\CortexM3\ARM_GCC_541\Debug\Scope-CY8CKIT-59.a(USBUART_std.o) (USBUART_DEVICE0_DESCR)
c:/program files (x86)/cypress/psoc creator/4.4/psoc creator/import/gnu/arm/5.4.1/bin/../lib/gcc/arm-none-eabi/5.4.1/armv7-m\libgcc.a(_arm_addsubdf3.o)
                              .\CortexM3\ARM_GCC_541\Debug\main.o (__aeabi_dadd)
c:/program files (x86)/cypress/psoc creator/4.4/psoc creator/import/gnu/arm/5.4.1/bin/../lib/gcc/arm-none-eabi/5.4.1/armv7-m\libgcc.a(_arm_muldivdf3.o)
                              .\CortexM3\ARM_GCC_541\Debug\main.o (__aeabi_dmul)
c:/program files (x86)/cypress/psoc creator/4.4/psoc creator/import/gnu/arm/5.4.1/bin/../lib/gcc/arm-none-eabi/5.4.1/armv7-m\libgcc.a(_arm_fixunsdfsi.o)
                              .\CortexM3\ARM_GCC_541\Debug\main.o (__aeabi_d2uiz)
c:/program files (x86)/cypress/psoc creator/4.4/psoc creator/import/gnu/arm/5.4.1/bin/../lib/gcc/arm-none-eabi/5.4.1/armv7-m\libgcc.a(_arm_truncdfsf2.o)
                              .\CortexM3\ARM_GCC_541\Debug\main.o (__aeabi_d2f)
c:/program files (x86)/cypress/psoc creator/4.4/psoc creator/import/gnu/arm/5.4.1/bin/../lib/gcc/arm-none-eabi/5.4.1/armv7-m\libgcc.a(_arm_addsubsf3.o)
                              .\CortexM3\ARM_GCC_541\Debug\main.o (__aeabi_ui2f)
c:/program files (x86)/cypress/psoc creator/4.4/psoc creator/import/gnu/arm/5.4.1/bin/../lib/gcc/arm-none-eabi/5.4.1/armv7-m\libgcc.a(_arm_muldivsf3.o)
                              .\CortexM3\ARM_GCC_541\Debug\main.o (__aeabi_fmul)
c:/program files (x86)/cypress/psoc creator/4.4/psoc creator/import/gnu/arm/5.4.1/bin/../lib/gcc/arm-none-eabi/5.4.1/armv7-m\libgcc.a(_arm_cmpsf2.o)
                              .\CortexM3\ARM_GCC_541\Debug\main.o (__aeabi_fcmpgt)
c:/program files (x86)/cypress/psoc creator/4.4/psoc creator/import/gnu/arm/5.4.1/bin/../lib/gcc/arm-none-eabi/5.4.1/armv7-m\libgcc.a(_arm_fixunssfsi.o)
                              .\CortexM3\ARM_GCC_541\Debug\main.o (__aeabi_f2uiz)
c:/program files (x86)/cypress/psoc creator/4.4/psoc creator/import/gnu/arm/5.4.1/bin/../lib/gcc/arm-none-eabi/5.4.1/armv7-m\libgcc.a(_aeabi_ldivmod.o)
                              .\CortexM3\ARM_GCC_541\Debug\Scope-CY8CKIT-59.a(ADC_2.o) (__aeabi_ldivmod)
c:/program files (x86)/cypress/psoc creator/4.4/psoc creator/import/gnu/arm/5.4.1/bin/../lib/gcc/arm-none-eabi/5.4.1/armv7-m\libgcc.a(_udivmoddi4.o)
                              c:/program files (x86)/cypress/psoc creator/4.4/psoc creator/import/gnu/arm/5.4.1/bin/../lib/gcc/arm-none-eabi/5.4.1/armv7-m\libgcc.a(_aeabi_ldivmod.o) (__udivmoddi4)
c:/program files (x86)/cypress/psoc creator/4.4/psoc creator/import/gnu/arm/5.4.1/bin/../lib/gcc/arm-none-eabi/5.4.1/armv7-m\libgcc.a(_dvmd_tls.o)
                              c:/program files (x86)/cypress/psoc creator/4.4/psoc creator/import/gnu/arm/5.4.1/bin/../lib/gcc/arm-none-eabi/5.4.1/armv7-m\libgcc.a(_aeabi_ldivmod.o) (__aeabi_ldiv0)
c:/program files (x86)/cypress/psoc creator/4.4/psoc creator/import/gnu/arm/5.4.1/bin/../lib/gcc/arm-none-eabi/5.4.1/../../../../arm-none-eabi/lib/armv7-m\libg_nano.a(lib_a-errno.o)
                              .\CortexM3\ARM_GCC_541\Debug\Cm3Start.o (__errno)
c:/program files (x86)/cypress/psoc creator/4.4/psoc creator/import/gnu/arm/5.4.1/bin/../lib/gcc/arm-none-eabi/5.4.1/../../../../arm-none-eabi/lib/armv7-m\libg_nano.a(lib_a-exit.o)
                              c:/program files (x86)/cypress/psoc creator/4.4/psoc creator/import/gnu/arm/5.4.1/bin/../lib/gcc/arm-none-eabi/5.4.1/../../../../arm-none-eabi/lib/armv7-m/crt0.o (exit)
c:/program files (x86)/cypress/psoc creator/4.4/psoc creator/import/gnu/arm/5.4.1/bin/../lib/gcc/arm-none-eabi/5.4.1/../../../../arm-none-eabi/lib/armv7-m\libg_nano.a(lib_a-impure.o)
                              c:/program files (x86)/cypress/psoc creator/4.4/psoc creator/import/gnu/arm/5.4.1/bin/../lib/gcc/arm-none-eabi/5.4.1/../../../../arm-none-eabi/lib/armv7-m\libg_nano.a(lib_a-exit.o) (_global_impure_ptr)
c:/program files (x86)/cypress/psoc creator/4.4/psoc creator/import/gnu/arm/5.4.1/bin/../lib/gcc/arm-none-eabi/5.4.1/../../../../arm-none-eabi/lib/armv7-m\libg_nano.a(lib_a-init.o)
                              c:/program files (x86)/cypress/psoc creator/4.4/psoc creator/import/gnu/arm/5.4.1/bin/../lib/gcc/arm-none-eabi/5.4.1/../../../../arm-none-eabi/lib/armv7-m/crt0.o (__libc_init_array)
c:/program files (x86)/cypress/psoc creator/4.4/psoc creator/import/gnu/arm/5.4.1/bin/../lib/gcc/arm-none-eabi/5.4.1/../../../../arm-none-eabi/lib/armv7-m\libg_nano.a(lib_a-memcpy-stub.o)
                              .\CortexM3\ARM_GCC_541\Debug\cyfitter_cfg.o (memcpy)
c:/program files (x86)/cypress/psoc creator/4.4/psoc creator/import/gnu/arm/5.4.1/bin/../lib/gcc/arm-none-eabi/5.4.1/../../../../arm-none-eabi/lib/armv7-m\libg_nano.a(lib_a-memset.o)
                              c:/program files (x86)/cypress/psoc creator/4.4/psoc creator/import/gnu/arm/5.4.1/bin/../lib/gcc/arm-none-eabi/5.4.1/../../../../arm-none-eabi/lib/armv7-m/crt0.o (memset)
c:/program files (x86)/cypress/psoc creator/4.4/psoc creator/import/gnu/arm/5.4.1/bin/../lib/gcc/arm-none-eabi/5.4.1/../../../../arm-none-eabi/lib/armv7-m\libg_nano.a(lib_a-sscanf.o)
                              .\CortexM3\ARM_GCC_541\Debug\main.o (sscanf)
c:/program files (x86)/cypress/psoc creator/4.4/psoc creator/import/gnu/arm/5.4.1/bin/../lib/gcc/arm-none-eabi/5.4.1/../../../../arm-none-eabi/lib/armv7-m\libg_nano.a(lib_a-stdio.o)
                              c:/program files (x86)/cypress/psoc creator/4.4/psoc creator/import/gnu/arm/5.4.1/bin/../lib/gcc/arm-none-eabi/5.4.1/../../../../arm-none-eabi/lib/armv7-m\libg_nano.a(lib_a-sscanf.o) (__seofread)
c:/program files (x86)/cypress/psoc creator/4.4/psoc creator/import/gnu/arm/5.4.1/bin/../lib/gcc/arm-none-eabi/5.4.1/../../../../arm-none-eabi/lib/armv7-m\libg_nano.a(lib_a-strlen.o)
                              c:/program files (x86)/cypress/psoc creator/4.4/psoc creator/import/gnu/arm/5.4.1/bin/../lib/gcc/arm-none-eabi/5.4.1/../../../../arm-none-eabi/lib/armv7-m\libg_nano.a(lib_a-sscanf.o) (strlen)
c:/program files (x86)/cypress/psoc creator/4.4/psoc creator/import/gnu/arm/5.4.1/bin/../lib/gcc/arm-none-eabi/5.4.1/../../../../arm-none-eabi/lib/armv7-m\libg_nano.a(lib_a-strtok.o)
                              .\CortexM3\ARM_GCC_541\Debug\main.o (strtok)
c:/program files (x86)/cypress/psoc creator/4.4/psoc creator/import/gnu/arm/5.4.1/bin/../lib/gcc/arm-none-eabi/5.4.1/../../../../arm-none-eabi/lib/armv7-m\libg_nano.a(lib_a-strtok_r.o)
                              c:/program files (x86)/cypress/psoc creator/4.4/psoc creator/import/gnu/arm/5.4.1/bin/../lib/gcc/arm-none-eabi/5.4.1/../../../../arm-none-eabi/lib/armv7-m\libg_nano.a(lib_a-strtok.o) (__strtok_r)
c:/program files (x86)/cypress/psoc creator/4.4/psoc creator/import/gnu/arm/5.4.1/bin/../lib/gcc/arm-none-eabi/5.4.1/../../../../arm-none-eabi/lib/armv7-m\libg_nano.a(lib_a-writer.o)
                              c:/program files (x86)/cypress/psoc creator/4.4/psoc creator/import/gnu/arm/5.4.1/bin/../lib/gcc/arm-none-eabi/5.4.1/../../../../arm-none-eabi/lib/armv7-m\libg_nano.a(lib_a-stdio.o) (_write_r)
c:/program files (x86)/cypress/psoc creator/4.4/psoc creator/import/gnu/arm/5.4.1/bin/../lib/gcc/arm-none-eabi/5.4.1/../../../../arm-none-eabi/lib/armv7-m\libg_nano.a(lib_a-closer.o)
                              c:/program files (x86)/cypress/psoc creator/4.4/psoc creator/import/gnu/arm/5.4.1/bin/../lib/gcc/arm-none-eabi/5.4.1/../../../../arm-none-eabi/lib/armv7-m\libg_nano.a(lib_a-stdio.o) (_close_r)
c:/program files (x86)/cypress/psoc creator/4.4/psoc creator/import/gnu/arm/5.4.1/bin/../lib/gcc/arm-none-eabi/5.4.1/../../../../arm-none-eabi/lib/armv7-m\libg_nano.a(lib_a-lseekr.o)
                              c:/program files (x86)/cypress/psoc creator/4.4/psoc creator/import/gnu/arm/5.4.1/bin/../lib/gcc/arm-none-eabi/5.4.1/../../../../arm-none-eabi/lib/armv7-m\libg_nano.a(lib_a-stdio.o) (_lseek_r)
c:/program files (x86)/cypress/psoc creator/4.4/psoc creator/import/gnu/arm/5.4.1/bin/../lib/gcc/arm-none-eabi/5.4.1/../../../../arm-none-eabi/lib/armv7-m\libg_nano.a(lib_a-malloc.o)
                              c:/program files (x86)/cypress/psoc creator/4.4/psoc creator/import/gnu/arm/5.4.1/bin/../lib/gcc/arm-none-eabi/5.4.1/../../../../arm-none-eabi/lib/armv7-m\libg_nano.a(lib_a-strtok.o) (malloc)
c:/program files (x86)/cypress/psoc creator/4.4/psoc creator/import/gnu/arm/5.4.1/bin/../lib/gcc/arm-none-eabi/5.4.1/../../../../arm-none-eabi/lib/armv7-m\libg_nano.a(lib_a-nano-freer.o)
                              c:/program files (x86)/cypress/psoc creator/4.4/psoc creator/import/gnu/arm/5.4.1/bin/../lib/gcc/arm-none-eabi/5.4.1/../../../../arm-none-eabi/lib/armv7-m\libg_nano.a(lib_a-malloc.o) (_free_r)
c:/program files (x86)/cypress/psoc creator/4.4/psoc creator/import/gnu/arm/5.4.1/bin/../lib/gcc/arm-none-eabi/5.4.1/../../../../arm-none-eabi/lib/armv7-m\libg_nano.a(lib_a-nano-mallocr.o)
                              c:/program files (x86)/cypress/psoc creator/4.4/psoc creator/import/gnu/arm/5.4.1/bin/../lib/gcc/arm-none-eabi/5.4.1/../../../../arm-none-eabi/lib/armv7-m\libg_nano.a(lib_a-malloc.o) (_malloc_r)
c:/program files (x86)/cypress/psoc creator/4.4/psoc creator/import/gnu/arm/5.4.1/bin/../lib/gcc/arm-none-eabi/5.4.1/../../../../arm-none-eabi/lib/armv7-m\libg_nano.a(lib_a-nano-svfscanf.o)
                              c:/program files (x86)/cypress/psoc creator/4.4/psoc creator/import/gnu/arm/5.4.1/bin/../lib/gcc/arm-none-eabi/5.4.1/../../../../arm-none-eabi/lib/armv7-m\libg_nano.a(lib_a-sscanf.o) (__ssvfscanf_r)
c:/program files (x86)/cypress/psoc creator/4.4/psoc creator/import/gnu/arm/5.4.1/bin/../lib/gcc/arm-none-eabi/5.4.1/../../../../arm-none-eabi/lib/armv7-m\libg_nano.a(lib_a-nano-vfscanf_i.o)
                              c:/program files (x86)/cypress/psoc creator/4.4/psoc creator/import/gnu/arm/5.4.1/bin/../lib/gcc/arm-none-eabi/5.4.1/../../../../arm-none-eabi/lib/armv7-m\libg_nano.a(lib_a-nano-svfscanf.o) (_scanf_chars)
c:/program files (x86)/cypress/psoc creator/4.4/psoc creator/import/gnu/arm/5.4.1/bin/../lib/gcc/arm-none-eabi/5.4.1/../../../../arm-none-eabi/lib/armv7-m\libg_nano.a(lib_a-readr.o)
                              c:/program files (x86)/cypress/psoc creator/4.4/psoc creator/import/gnu/arm/5.4.1/bin/../lib/gcc/arm-none-eabi/5.4.1/../../../../arm-none-eabi/lib/armv7-m\libg_nano.a(lib_a-stdio.o) (_read_r)
c:/program files (x86)/cypress/psoc creator/4.4/psoc creator/import/gnu/arm/5.4.1/bin/../lib/gcc/arm-none-eabi/5.4.1/../../../../arm-none-eabi/lib/armv7-m\libg_nano.a(lib_a-reent.o)
                              c:/program files (x86)/cypress/psoc creator/4.4/psoc creator/import/gnu/arm/5.4.1/bin/../lib/gcc/arm-none-eabi/5.4.1/../../../../arm-none-eabi/lib/armv7-m\libg_nano.a(lib_a-writer.o) (errno)
c:/program files (x86)/cypress/psoc creator/4.4/psoc creator/import/gnu/arm/5.4.1/bin/../lib/gcc/arm-none-eabi/5.4.1/../../../../arm-none-eabi/lib/armv7-m\libg_nano.a(lib_a-sbrkr.o)
                              c:/program files (x86)/cypress/psoc creator/4.4/psoc creator/import/gnu/arm/5.4.1/bin/../lib/gcc/arm-none-eabi/5.4.1/../../../../arm-none-eabi/lib/armv7-m\libg_nano.a(lib_a-nano-mallocr.o) (_sbrk_r)
c:/program files (x86)/cypress/psoc creator/4.4/psoc creator/import/gnu/arm/5.4.1/bin/../lib/gcc/arm-none-eabi/5.4.1/../../../../arm-none-eabi/lib/armv7-m\libg_nano.a(lib_a-sccl.o)
                              c:/program files (x86)/cypress/psoc creator/4.4/psoc creator/import/gnu/arm/5.4.1/bin/../lib/gcc/arm-none-eabi/5.4.1/../../../../arm-none-eabi/lib/armv7-m\libg_nano.a(lib_a-nano-svfscanf.o) (__sccl)
c:/program files (x86)/cypress/psoc creator/4.4/psoc creator/import/gnu/arm/5.4.1/bin/../lib/gcc/arm-none-eabi/5.4.1/../../../../arm-none-eabi/lib/armv7-m\libg_nano.a(lib_a-strtol.o)
                              c:/program files (x86)/cypress/psoc creator/4.4/psoc creator/import/gnu/arm/5.4.1/bin/../lib/gcc/arm-none-eabi/5.4.1/../../../../arm-none-eabi/lib/armv7-m\libg_nano.a(lib_a-nano-vfscanf_i.o) (_strtol_r)
c:/program files (x86)/cypress/psoc creator/4.4/psoc creator/import/gnu/arm/5.4.1/bin/../lib/gcc/arm-none-eabi/5.4.1/../../../../arm-none-eabi/lib/armv7-m\libg_nano.a(lib_a-strtoul.o)
                              c:/program files (x86)/cypress/psoc creator/4.4/psoc creator/import/gnu/arm/5.4.1/bin/../lib/gcc/arm-none-eabi/5.4.1/../../../../arm-none-eabi/lib/armv7-m\libg_nano.a(lib_a-nano-vfscanf_i.o) (_strtoul_r)
c:/program files (x86)/cypress/psoc creator/4.4/psoc creator/import/gnu/arm/5.4.1/bin/../lib/gcc/arm-none-eabi/5.4.1/../../../../arm-none-eabi/lib/armv7-m\libg_nano.a(lib_a-ungetc.o)
                              c:/program files (x86)/cypress/psoc creator/4.4/psoc creator/import/gnu/arm/5.4.1/bin/../lib/gcc/arm-none-eabi/5.4.1/../../../../arm-none-eabi/lib/armv7-m\libg_nano.a(lib_a-nano-svfscanf.o) (__submore)
c:/program files (x86)/cypress/psoc creator/4.4/psoc creator/import/gnu/arm/5.4.1/bin/../lib/gcc/arm-none-eabi/5.4.1/../../../../arm-none-eabi/lib/armv7-m\libg_nano.a(lib_a-ctype_.o)
                              c:/program files (x86)/cypress/psoc creator/4.4/psoc creator/import/gnu/arm/5.4.1/bin/../lib/gcc/arm-none-eabi/5.4.1/../../../../arm-none-eabi/lib/armv7-m\libg_nano.a(lib_a-nano-svfscanf.o) (__ctype_ptr__)
c:/program files (x86)/cypress/psoc creator/4.4/psoc creator/import/gnu/arm/5.4.1/bin/../lib/gcc/arm-none-eabi/5.4.1/../../../../arm-none-eabi/lib/armv7-m\libg_nano.a(lib_a-fflush.o)
                              c:/program files (x86)/cypress/psoc creator/4.4/psoc creator/import/gnu/arm/5.4.1/bin/../lib/gcc/arm-none-eabi/5.4.1/../../../../arm-none-eabi/lib/armv7-m\libg_nano.a(lib_a-ungetc.o) (_fflush_r)
c:/program files (x86)/cypress/psoc creator/4.4/psoc creator/import/gnu/arm/5.4.1/bin/../lib/gcc/arm-none-eabi/5.4.1/../../../../arm-none-eabi/lib/armv7-m\libg_nano.a(lib_a-findfp.o)
                              c:/program files (x86)/cypress/psoc creator/4.4/psoc creator/import/gnu/arm/5.4.1/bin/../lib/gcc/arm-none-eabi/5.4.1/../../../../arm-none-eabi/lib/armv7-m\libg_nano.a(lib_a-ungetc.o) (__sinit)
c:/program files (x86)/cypress/psoc creator/4.4/psoc creator/import/gnu/arm/5.4.1/bin/../lib/gcc/arm-none-eabi/5.4.1/../../../../arm-none-eabi/lib/armv7-m\libg_nano.a(lib_a-fwalk.o)
                              c:/program files (x86)/cypress/psoc creator/4.4/psoc creator/import/gnu/arm/5.4.1/bin/../lib/gcc/arm-none-eabi/5.4.1/../../../../arm-none-eabi/lib/armv7-m\libg_nano.a(lib_a-findfp.o) (_fwalk)
c:/program files (x86)/cypress/psoc creator/4.4/psoc creator/import/gnu/arm/5.4.1/bin/../lib/gcc/arm-none-eabi/5.4.1/../../../../arm-none-eabi/lib/armv7-m\libg_nano.a(lib_a-memchr-stub.o)
                              c:/program files (x86)/cypress/psoc creator/4.4/psoc creator/import/gnu/arm/5.4.1/bin/../lib/gcc/arm-none-eabi/5.4.1/../../../../arm-none-eabi/lib/armv7-m\libg_nano.a(lib_a-nano-svfscanf.o) (memchr)
c:/program files (x86)/cypress/psoc creator/4.4/psoc creator/import/gnu/arm/5.4.1/bin/../lib/gcc/arm-none-eabi/5.4.1/../../../../arm-none-eabi/lib/armv7-m\libg_nano.a(lib_a-mlock.o)
                              c:/program files (x86)/cypress/psoc creator/4.4/psoc creator/import/gnu/arm/5.4.1/bin/../lib/gcc/arm-none-eabi/5.4.1/../../../../arm-none-eabi/lib/armv7-m\libg_nano.a(lib_a-nano-freer.o) (__malloc_lock)
c:/program files (x86)/cypress/psoc creator/4.4/psoc creator/import/gnu/arm/5.4.1/bin/../lib/gcc/arm-none-eabi/5.4.1/../../../../arm-none-eabi/lib/armv7-m\libg_nano.a(lib_a-nano-reallocr.o)
                              c:/program files (x86)/cypress/psoc creator/4.4/psoc creator/import/gnu/arm/5.4.1/bin/../lib/gcc/arm-none-eabi/5.4.1/../../../../arm-none-eabi/lib/armv7-m\libg_nano.a(lib_a-ungetc.o) (_realloc_r)
c:/program files (x86)/cypress/psoc creator/4.4/psoc creator/import/gnu/arm/5.4.1/bin/../lib/gcc/arm-none-eabi/5.4.1/../../../../arm-none-eabi/lib/armv7-m\libg_nano.a(lib_a-nano-msizer.o)
                              c:/program files (x86)/cypress/psoc creator/4.4/psoc creator/import/gnu/arm/5.4.1/bin/../lib/gcc/arm-none-eabi/5.4.1/../../../../arm-none-eabi/lib/armv7-m\libg_nano.a(lib_a-nano-reallocr.o) (_malloc_usable_size_r)
c:/program files (x86)/cypress/psoc creator/4.4/psoc creator/import/gnu/arm/5.4.1/bin/../lib/gcc/arm-none-eabi/5.4.1/../../../../arm-none-eabi/lib/armv7-m\libnosys.a(close.o)
                              c:/program files (x86)/cypress/psoc creator/4.4/psoc creator/import/gnu/arm/5.4.1/bin/../lib/gcc/arm-none-eabi/5.4.1/../../../../arm-none-eabi/lib/armv7-m\libg_nano.a(lib_a-closer.o) (_close)
c:/program files (x86)/cypress/psoc creator/4.4/psoc creator/import/gnu/arm/5.4.1/bin/../lib/gcc/arm-none-eabi/5.4.1/../../../../arm-none-eabi/lib/armv7-m\libnosys.a(lseek.o)
                              c:/program files (x86)/cypress/psoc creator/4.4/psoc creator/import/gnu/arm/5.4.1/bin/../lib/gcc/arm-none-eabi/5.4.1/../../../../arm-none-eabi/lib/armv7-m\libg_nano.a(lib_a-lseekr.o) (_lseek)
c:/program files (x86)/cypress/psoc creator/4.4/psoc creator/import/gnu/arm/5.4.1/bin/../lib/gcc/arm-none-eabi/5.4.1/../../../../arm-none-eabi/lib/armv7-m\libnosys.a(read.o)
                              c:/program files (x86)/cypress/psoc creator/4.4/psoc creator/import/gnu/arm/5.4.1/bin/../lib/gcc/arm-none-eabi/5.4.1/../../../../arm-none-eabi/lib/armv7-m\libg_nano.a(lib_a-readr.o) (_read)
c:/program files (x86)/cypress/psoc creator/4.4/psoc creator/import/gnu/arm/5.4.1/bin/../lib/gcc/arm-none-eabi/5.4.1/../../../../arm-none-eabi/lib/armv7-m\libnosys.a(write.o)
                              c:/program files (x86)/cypress/psoc creator/4.4/psoc creator/import/gnu/arm/5.4.1/bin/../lib/gcc/arm-none-eabi/5.4.1/../../../../arm-none-eabi/lib/armv7-m\libg_nano.a(lib_a-writer.o) (_write)

Allocating common symbols
Common symbol       size              file

DMA_Channel_2_Chan  0x1               .\CortexM3\ARM_GCC_541\Debug\main.o
USBUART_lastPacketSize
                    0x1               .\CortexM3\ARM_GCC_541\Debug\Scope-CY8CKIT-59.a(USBUART_drv.o)
USBUART_device      0x1               .\CortexM3\ARM_GCC_541\Debug\Scope-CY8CKIT-59.a(USBUART_drv.o)
ADC_1_offset        0x2               .\CortexM3\ARM_GCC_541\Debug\Scope-CY8CKIT-59.a(ADC_1.o)
USBUART_transferByteCount
                    0x2               .\CortexM3\ARM_GCC_541\Debug\Scope-CY8CKIT-59.a(USBUART_drv.o)
USBUART_transferState
                    0x1               .\CortexM3\ARM_GCC_541\Debug\Scope-CY8CKIT-59.a(USBUART_drv.o)
cCommandsReady      0x2               .\CortexM3\ARM_GCC_541\Debug\main.o
errno               0x4               c:/program files (x86)/cypress/psoc creator/4.4/psoc creator/import/gnu/arm/5.4.1/bin/../lib/gcc/arm-none-eabi/5.4.1/../../../../arm-none-eabi/lib/armv7-m\libg_nano.a(lib_a-reent.o)
ADC_2_shift         0x2               .\CortexM3\ARM_GCC_541\Debug\Scope-CY8CKIT-59.a(ADC_2.o)
Channel_1_Data      0x800             .\CortexM3\ARM_GCC_541\Debug\main.o
preamp_a            0x1               .\CortexM3\ARM_GCC_541\Debug\main.o
USBUART_interfaceSettingLast
                    0x2               .\CortexM3\ARM_GCC_541\Debug\Scope-CY8CKIT-59.a(USBUART_drv.o)
USBUART_linesChanged
                    0x2               .\CortexM3\ARM_GCC_541\Debug\Scope-CY8CKIT-59.a(USBUART_cdc.o)
iWrite              0x2               .\CortexM3\ARM_GCC_541\Debug\main.o
USBUART_currentTD   0xc               .\CortexM3\ARM_GCC_541\Debug\Scope-CY8CKIT-59.a(USBUART_drv.o)
Digital_AutoUpdate  0x1               .\CortexM3\ARM_GCC_541\Debug\main.o
DMA_Channel_1_TD    0x1               .\CortexM3\ARM_GCC_541\Debug\main.o
USBUART_cdcDataInEp
                    0x2               .\CortexM3\ARM_GCC_541\Debug\Scope-CY8CKIT-59.a(USBUART_cdc.o)
Channel_2_Data      0x800             .\CortexM3\ARM_GCC_541\Debug\main.o
ADC_2_countsPerVolt
                    0x2               .\CortexM3\ARM_GCC_541\Debug\Scope-CY8CKIT-59.a(ADC_2.o)
trigger_source      0x1               .\CortexM3\ARM_GCC_541\Debug\main.o
ADC_2_countsPer10Volt
                    0x4               .\CortexM3\ARM_GCC_541\Debug\Scope-CY8CKIT-59.a(ADC_2.o)
Noise_Adjusted      0x1               .\CortexM3\ARM_GCC_541\Debug\main.o
bCommandReady       0x1               .\CortexM3\ARM_GCC_541\Debug\main.o
szTempBuffer        0x40              .\CortexM3\ARM_GCC_541\Debug\main.o
szCommandsBuffer    0x1000            .\CortexM3\ARM_GCC_541\Debug\main.o
WaveformA_Temp_Buffer
                    0x800             .\CortexM3\ARM_GCC_541\Debug\main.o
USBUART_idSerialNumberStringDescriptor
                    0x22              .\CortexM3\ARM_GCC_541\Debug\Scope-CY8CKIT-59.a(USBUART_descr.o)
DMA_Channel_1_Chan  0x1               .\CortexM3\ARM_GCC_541\Debug\main.o
USBUART_cdcCommInInterruptEp
                    0x2               .\CortexM3\ARM_GCC_541\Debug\Scope-CY8CKIT-59.a(USBUART_cdc.o)
USBUART_cdcDataOutEp
                    0x2               .\CortexM3\ARM_GCC_541\Debug\Scope-CY8CKIT-59.a(USBUART_cdc.o)
USB_Out_Buffer      0x40              .\CortexM3\ARM_GCC_541\Debug\main.o
USBUART_interfaceNumber
                    0x1               .\CortexM3\ARM_GCC_541\Debug\Scope-CY8CKIT-59.a(USBUART_drv.o)
preamp_b            0x1               .\CortexM3\ARM_GCC_541\Debug\main.o
USBUART_interfaceClass
                    0x4               .\CortexM3\ARM_GCC_541\Debug\Scope-CY8CKIT-59.a(USBUART_drv.o)
USBUART_configurationChanged
                    0x1               .\CortexM3\ARM_GCC_541\Debug\Scope-CY8CKIT-59.a(USBUART_drv.o)
USBUART_ep0Mode     0x1               .\CortexM3\ARM_GCC_541\Debug\Scope-CY8CKIT-59.a(USBUART_drv.o)
cCharsReceived      0x1               .\CortexM3\ARM_GCC_541\Debug\main.o
USBUART_deviceAddress
                    0x1               .\CortexM3\ARM_GCC_541\Debug\Scope-CY8CKIT-59.a(USBUART_drv.o)
USBUART_configuration
                    0x1               .\CortexM3\ARM_GCC_541\Debug\Scope-CY8CKIT-59.a(USBUART_drv.o)
ADC_1_shift         0x2               .\CortexM3\ARM_GCC_541\Debug\Scope-CY8CKIT-59.a(ADC_1.o)
USBUART_serialStateBitmap
                    0x4               .\CortexM3\ARM_GCC_541\Debug\Scope-CY8CKIT-59.a(USBUART_cdc.o)
USBUART_ep0Count    0x1               .\CortexM3\ARM_GCC_541\Debug\Scope-CY8CKIT-59.a(USBUART_drv.o)
USBUART_linesControlBitmap
                    0x4               .\CortexM3\ARM_GCC_541\Debug\Scope-CY8CKIT-59.a(USBUART_cdc.o)
USBUART_deviceStatus
                    0x1               .\CortexM3\ARM_GCC_541\Debug\Scope-CY8CKIT-59.a(USBUART_drv.o)
ADC_1_countsPerVolt
                    0x2               .\CortexM3\ARM_GCC_541\Debug\Scope-CY8CKIT-59.a(ADC_1.o)
iRead               0x2               .\CortexM3\ARM_GCC_541\Debug\main.o
preamp_trig         0x1               .\CortexM3\ARM_GCC_541\Debug\main.o
USBUART_EP          0x6c              .\CortexM3\ARM_GCC_541\Debug\Scope-CY8CKIT-59.a(USBUART_drv.o)
DMA_Channel_2_TD    0x1               .\CortexM3\ARM_GCC_541\Debug\main.o
ADC_2_offset        0x2               .\CortexM3\ARM_GCC_541\Debug\Scope-CY8CKIT-59.a(ADC_2.o)
USBUART_interfaceSetting
                    0x2               .\CortexM3\ARM_GCC_541\Debug\Scope-CY8CKIT-59.a(USBUART_drv.o)
USBUART_ep0Toggle   0x1               .\CortexM3\ARM_GCC_541\Debug\Scope-CY8CKIT-59.a(USBUART_drv.o)
dieTemperature      0x2               .\CortexM3\ARM_GCC_541\Debug\Scope-CY8CKIT-59.a(CyFlash.o)
WaveformB_Buffer    0x800             .\CortexM3\ARM_GCC_541\Debug\main.o
WaveformB_Temp_Buffer
                    0x800             .\CortexM3\ARM_GCC_541\Debug\main.o
ADC_1_countsPer10Volt
                    0x4               .\CortexM3\ARM_GCC_541\Debug\Scope-CY8CKIT-59.a(ADC_1.o)
WaveformA_Buffer    0x800             .\CortexM3\ARM_GCC_541\Debug\main.o
Digital_Input_Status_Last
                    0x1               .\CortexM3\ARM_GCC_541\Debug\main.o
USBUART_interfaceStatus
                    0x2               .\CortexM3\ARM_GCC_541\Debug\Scope-CY8CKIT-59.a(USBUART_drv.o)
szCommand           0x40              .\CortexM3\ARM_GCC_541\Debug\main.o

Discarded input sections

 .text          0x00000000        0x0 c:/program files (x86)/cypress/psoc creator/4.4/psoc creator/import/gnu/arm/5.4.1/bin/../lib/gcc/arm-none-eabi/5.4.1/armv7-m/crti.o
 .data          0x00000000        0x0 c:/program files (x86)/cypress/psoc creator/4.4/psoc creator/import/gnu/arm/5.4.1/bin/../lib/gcc/arm-none-eabi/5.4.1/armv7-m/crti.o
 .bss           0x00000000        0x0 c:/program files (x86)/cypress/psoc creator/4.4/psoc creator/import/gnu/arm/5.4.1/bin/../lib/gcc/arm-none-eabi/5.4.1/armv7-m/crti.o
 .data          0x00000000        0x4 c:/program files (x86)/cypress/psoc creator/4.4/psoc creator/import/gnu/arm/5.4.1/bin/../lib/gcc/arm-none-eabi/5.4.1/armv7-m/crtbegin.o
 .text          0x00000000       0x74 c:/program files (x86)/cypress/psoc creator/4.4/psoc creator/import/gnu/arm/5.4.1/bin/../lib/gcc/arm-none-eabi/5.4.1/../../../../arm-none-eabi/lib/armv7-m/crt0.o
 .data          0x00000000        0x0 c:/program files (x86)/cypress/psoc creator/4.4/psoc creator/import/gnu/arm/5.4.1/bin/../lib/gcc/arm-none-eabi/5.4.1/../../../../arm-none-eabi/lib/armv7-m/crt0.o
 .bss           0x00000000        0x0 c:/program files (x86)/cypress/psoc creator/4.4/psoc creator/import/gnu/arm/5.4.1/bin/../lib/gcc/arm-none-eabi/5.4.1/../../../../arm-none-eabi/lib/armv7-m/crt0.o
 .ARM.extab     0x00000000        0x0 c:/program files (x86)/cypress/psoc creator/4.4/psoc creator/import/gnu/arm/5.4.1/bin/../lib/gcc/arm-none-eabi/5.4.1/../../../../arm-none-eabi/lib/armv7-m/crt0.o
 .ARM.exidx     0x00000000        0x8 c:/program files (x86)/cypress/psoc creator/4.4/psoc creator/import/gnu/arm/5.4.1/bin/../lib/gcc/arm-none-eabi/5.4.1/../../../../arm-none-eabi/lib/armv7-m/crt0.o
 .text          0x00000000        0x0 .\CortexM3\ARM_GCC_541\Debug\main.o
 .data          0x00000000        0x0 .\CortexM3\ARM_GCC_541\Debug\main.o
 .text          0x00000000        0x0 .\CortexM3\ARM_GCC_541\Debug\cyfitter_cfg.o
 .data          0x00000000        0x0 .\CortexM3\ARM_GCC_541\Debug\cyfitter_cfg.o
 .bss           0x00000000        0x0 .\CortexM3\ARM_GCC_541\Debug\cyfitter_cfg.o
 .text.CYCONFIGCPYCODE
                0x00000000       0x20 .\CortexM3\ARM_GCC_541\Debug\cyfitter_cfg.o
 .text.SetAnalogRoutingPumps
                0x00000000       0x3c .\CortexM3\ARM_GCC_541\Debug\cyfitter_cfg.o
 .text          0x00000000        0x0 .\CortexM3\ARM_GCC_541\Debug\Cm3Start.o
 .bss           0x00000000        0x0 .\CortexM3\ARM_GCC_541\Debug\Cm3Start.o
 .text._exit    0x00000000       0x14 .\CortexM3\ARM_GCC_541\Debug\Cm3Start.o
 .text          0x00000000        0x0 .\CortexM3\ARM_GCC_541\Debug\cymetadata.o
 .data          0x00000000        0x0 .\CortexM3\ARM_GCC_541\Debug\cymetadata.o
 .bss           0x00000000        0x0 .\CortexM3\ARM_GCC_541\Debug\cymetadata.o
 .text          0x00000000        0x0 .\CortexM3\ARM_GCC_541\Debug\Scope-CY8CKIT-59.a(CyDmac.o)
 .bss           0x00000000        0x0 .\CortexM3\ARM_GCC_541\Debug\Scope-CY8CKIT-59.a(CyDmac.o)
 .text.CyDmacError
                0x00000000       0x1c .\CortexM3\ARM_GCC_541\Debug\Scope-CY8CKIT-59.a(CyDmac.o)
 .text.CyDmacClearError
                0x00000000       0x24 .\CortexM3\ARM_GCC_541\Debug\Scope-CY8CKIT-59.a(CyDmac.o)
 .text.CyDmacErrorAddress
                0x00000000       0x14 .\CortexM3\ARM_GCC_541\Debug\Scope-CY8CKIT-59.a(CyDmac.o)
 .text.CyDmaChAlloc
                0x00000000       0x64 .\CortexM3\ARM_GCC_541\Debug\Scope-CY8CKIT-59.a(CyDmac.o)
 .text.CyDmaChFree
                0x00000000       0x4c .\CortexM3\ARM_GCC_541\Debug\Scope-CY8CKIT-59.a(CyDmac.o)
 .text.CyDmaChDisable
                0x00000000       0x60 .\CortexM3\ARM_GCC_541\Debug\Scope-CY8CKIT-59.a(CyDmac.o)
 .text.CyDmaClearPendingDrq
                0x00000000       0x60 .\CortexM3\ARM_GCC_541\Debug\Scope-CY8CKIT-59.a(CyDmac.o)
 .text.CyDmaChGetRequest
                0x00000000       0x38 .\CortexM3\ARM_GCC_541\Debug\Scope-CY8CKIT-59.a(CyDmac.o)
 .text.CyDmaChStatus
                0x00000000       0x60 .\CortexM3\ARM_GCC_541\Debug\Scope-CY8CKIT-59.a(CyDmac.o)
 .text.CyDmaTdFree
                0x00000000       0x58 .\CortexM3\ARM_GCC_541\Debug\Scope-CY8CKIT-59.a(CyDmac.o)
 .text.CyDmaTdFreeCount
                0x00000000       0x18 .\CortexM3\ARM_GCC_541\Debug\Scope-CY8CKIT-59.a(CyDmac.o)
 .text.CyDmaTdGetConfiguration
                0x00000000       0x84 .\CortexM3\ARM_GCC_541\Debug\Scope-CY8CKIT-59.a(CyDmac.o)
 .text.CyDmaTdGetAddress
                0x00000000       0x6c .\CortexM3\ARM_GCC_541\Debug\Scope-CY8CKIT-59.a(CyDmac.o)
 .text          0x00000000        0x0 .\CortexM3\ARM_GCC_541\Debug\Scope-CY8CKIT-59.a(CyLib.o)
 .bss           0x00000000       0x19 .\CortexM3\ARM_GCC_541\Debug\Scope-CY8CKIT-59.a(CyLib.o)
 .text.CyPLL_OUT_Start
                0x00000000       0xb0 .\CortexM3\ARM_GCC_541\Debug\Scope-CY8CKIT-59.a(CyLib.o)
 .text.CyPLL_OUT_Stop
                0x00000000       0x20 .\CortexM3\ARM_GCC_541\Debug\Scope-CY8CKIT-59.a(CyLib.o)
 .text.CyPLL_OUT_SetPQ
                0x00000000       0x94 .\CortexM3\ARM_GCC_541\Debug\Scope-CY8CKIT-59.a(CyLib.o)
 .text.CyPLL_OUT_SetSource
                0x00000000       0x58 .\CortexM3\ARM_GCC_541\Debug\Scope-CY8CKIT-59.a(CyLib.o)
 .text.CyIMO_Start
                0x00000000       0x94 .\CortexM3\ARM_GCC_541\Debug\Scope-CY8CKIT-59.a(CyLib.o)
 .text.CyIMO_Stop
                0x00000000       0x34 .\CortexM3\ARM_GCC_541\Debug\Scope-CY8CKIT-59.a(CyLib.o)
 .text.CyUSB_PowerOnCheck
                0x00000000       0x60 .\CortexM3\ARM_GCC_541\Debug\Scope-CY8CKIT-59.a(CyLib.o)
 .text.CyIMO_SetTrimValue
                0x00000000      0x108 .\CortexM3\ARM_GCC_541\Debug\Scope-CY8CKIT-59.a(CyLib.o)
 .text.CyIMO_SetFreq
                0x00000000      0x1b0 .\CortexM3\ARM_GCC_541\Debug\Scope-CY8CKIT-59.a(CyLib.o)
 .text.CyIMO_SetSource
                0x00000000       0x8c .\CortexM3\ARM_GCC_541\Debug\Scope-CY8CKIT-59.a(CyLib.o)
 .text.CyIMO_EnableDoubler
                0x00000000       0x20 .\CortexM3\ARM_GCC_541\Debug\Scope-CY8CKIT-59.a(CyLib.o)
 .text.CyIMO_DisableDoubler
                0x00000000       0x20 .\CortexM3\ARM_GCC_541\Debug\Scope-CY8CKIT-59.a(CyLib.o)
 .text.CyMasterClk_SetSource
                0x00000000       0x34 .\CortexM3\ARM_GCC_541\Debug\Scope-CY8CKIT-59.a(CyLib.o)
 .text.CyMasterClk_SetDivider
                0x00000000       0x20 .\CortexM3\ARM_GCC_541\Debug\Scope-CY8CKIT-59.a(CyLib.o)
 .text.CyBusClk_Internal_SetDivider
                0x00000000       0x78 .\CortexM3\ARM_GCC_541\Debug\Scope-CY8CKIT-59.a(CyLib.o)
 .text.CyBusClk_SetDivider
                0x00000000       0xb4 .\CortexM3\ARM_GCC_541\Debug\Scope-CY8CKIT-59.a(CyLib.o)
 .text.CyUsbClk_SetSource
                0x00000000       0x34 .\CortexM3\ARM_GCC_541\Debug\Scope-CY8CKIT-59.a(CyLib.o)
 .text.CyILO_Start1K
                0x00000000       0x20 .\CortexM3\ARM_GCC_541\Debug\Scope-CY8CKIT-59.a(CyLib.o)
 .text.CyILO_Stop1K
                0x00000000       0x20 .\CortexM3\ARM_GCC_541\Debug\Scope-CY8CKIT-59.a(CyLib.o)
 .text.CyILO_Start100K
                0x00000000       0x20 .\CortexM3\ARM_GCC_541\Debug\Scope-CY8CKIT-59.a(CyLib.o)
 .text.CyILO_Stop100K
                0x00000000       0x20 .\CortexM3\ARM_GCC_541\Debug\Scope-CY8CKIT-59.a(CyLib.o)
 .text.CyILO_Enable33K
                0x00000000       0x20 .\CortexM3\ARM_GCC_541\Debug\Scope-CY8CKIT-59.a(CyLib.o)
 .text.CyILO_Disable33K
                0x00000000       0x20 .\CortexM3\ARM_GCC_541\Debug\Scope-CY8CKIT-59.a(CyLib.o)
 .text.CyILO_SetSource
                0x00000000       0x38 .\CortexM3\ARM_GCC_541\Debug\Scope-CY8CKIT-59.a(CyLib.o)
 .text.CyILO_SetPowerMode
                0x00000000       0x4c .\CortexM3\ARM_GCC_541\Debug\Scope-CY8CKIT-59.a(CyLib.o)
 .text.CyXTAL_32KHZ_Start
                0x00000000       0x88 .\CortexM3\ARM_GCC_541\Debug\Scope-CY8CKIT-59.a(CyLib.o)
 .text.CyXTAL_32KHZ_Stop
                0x00000000       0x50 .\CortexM3\ARM_GCC_541\Debug\Scope-CY8CKIT-59.a(CyLib.o)
 .text.CyXTAL_32KHZ_ReadStatus
                0x00000000       0x1c .\CortexM3\ARM_GCC_541\Debug\Scope-CY8CKIT-59.a(CyLib.o)
 .text.CyXTAL_32KHZ_SetPowerMode
                0x00000000       0xb4 .\CortexM3\ARM_GCC_541\Debug\Scope-CY8CKIT-59.a(CyLib.o)
 .text.CyXTAL_Start
                0x00000000       0xd0 .\CortexM3\ARM_GCC_541\Debug\Scope-CY8CKIT-59.a(CyLib.o)
 .text.CyXTAL_Stop
                0x00000000       0x20 .\CortexM3\ARM_GCC_541\Debug\Scope-CY8CKIT-59.a(CyLib.o)
 .text.CyXTAL_EnableErrStatus
                0x00000000       0x20 .\CortexM3\ARM_GCC_541\Debug\Scope-CY8CKIT-59.a(CyLib.o)
 .text.CyXTAL_DisableErrStatus
                0x00000000       0x20 .\CortexM3\ARM_GCC_541\Debug\Scope-CY8CKIT-59.a(CyLib.o)
 .text.CyXTAL_ReadStatus
                0x00000000       0x24 .\CortexM3\ARM_GCC_541\Debug\Scope-CY8CKIT-59.a(CyLib.o)
 .text.CyXTAL_EnableFaultRecovery
                0x00000000       0x20 .\CortexM3\ARM_GCC_541\Debug\Scope-CY8CKIT-59.a(CyLib.o)
 .text.CyXTAL_DisableFaultRecovery
                0x00000000       0x20 .\CortexM3\ARM_GCC_541\Debug\Scope-CY8CKIT-59.a(CyLib.o)
 .text.CyXTAL_SetStartup
                0x00000000       0x34 .\CortexM3\ARM_GCC_541\Debug\Scope-CY8CKIT-59.a(CyLib.o)
 .text.CyXTAL_SetFbVoltage
                0x00000000       0x34 .\CortexM3\ARM_GCC_541\Debug\Scope-CY8CKIT-59.a(CyLib.o)
 .text.CyXTAL_SetWdVoltage
                0x00000000       0x38 .\CortexM3\ARM_GCC_541\Debug\Scope-CY8CKIT-59.a(CyLib.o)
 .text.CySoftwareReset
                0x00000000       0x20 .\CortexM3\ARM_GCC_541\Debug\Scope-CY8CKIT-59.a(CyLib.o)
 .text.CyDelay  0x00000000       0x44 .\CortexM3\ARM_GCC_541\Debug\Scope-CY8CKIT-59.a(CyLib.o)
 .text.CyDelayFreq
                0x00000000       0x7c .\CortexM3\ARM_GCC_541\Debug\Scope-CY8CKIT-59.a(CyLib.o)
 .text.CyWdtStart
                0x00000000       0x8c .\CortexM3\ARM_GCC_541\Debug\Scope-CY8CKIT-59.a(CyLib.o)
 .text.CyWdtClear
                0x00000000       0x18 .\CortexM3\ARM_GCC_541\Debug\Scope-CY8CKIT-59.a(CyLib.o)
 .text.CyVdLvDigitEnable
                0x00000000       0xcc .\CortexM3\ARM_GCC_541\Debug\Scope-CY8CKIT-59.a(CyLib.o)
 .text.CyVdLvAnalogEnable
                0x00000000       0xcc .\CortexM3\ARM_GCC_541\Debug\Scope-CY8CKIT-59.a(CyLib.o)
 .text.CyVdLvDigitDisable
                0x00000000       0x48 .\CortexM3\ARM_GCC_541\Debug\Scope-CY8CKIT-59.a(CyLib.o)
 .text.CyVdLvAnalogDisable
                0x00000000       0x44 .\CortexM3\ARM_GCC_541\Debug\Scope-CY8CKIT-59.a(CyLib.o)
 .text.CyVdHvAnalogEnable
                0x00000000       0x7c .\CortexM3\ARM_GCC_541\Debug\Scope-CY8CKIT-59.a(CyLib.o)
 .text.CyVdHvAnalogDisable
                0x00000000       0x30 .\CortexM3\ARM_GCC_541\Debug\Scope-CY8CKIT-59.a(CyLib.o)
 .text.CyVdStickyStatus
                0x00000000       0x5c .\CortexM3\ARM_GCC_541\Debug\Scope-CY8CKIT-59.a(CyLib.o)
 .text.CyVdRealTimeStatus
                0x00000000       0x30 .\CortexM3\ARM_GCC_541\Debug\Scope-CY8CKIT-59.a(CyLib.o)
 .text.CyDisableInts
                0x00000000       0x34 .\CortexM3\ARM_GCC_541\Debug\Scope-CY8CKIT-59.a(CyLib.o)
 .text.CyEnableInts
                0x00000000       0x2c .\CortexM3\ARM_GCC_541\Debug\Scope-CY8CKIT-59.a(CyLib.o)
 .text.CyFlushCache
                0x00000000       0x5c .\CortexM3\ARM_GCC_541\Debug\Scope-CY8CKIT-59.a(CyLib.o)
 .text.CyIntSetSysVector
                0x00000000       0x4c .\CortexM3\ARM_GCC_541\Debug\Scope-CY8CKIT-59.a(CyLib.o)
 .text.CyIntGetSysVector
                0x00000000       0x38 .\CortexM3\ARM_GCC_541\Debug\Scope-CY8CKIT-59.a(CyLib.o)
 .text.CyIntGetVector
                0x00000000       0x38 .\CortexM3\ARM_GCC_541\Debug\Scope-CY8CKIT-59.a(CyLib.o)
 .text.CyIntGetPriority
                0x00000000       0x38 .\CortexM3\ARM_GCC_541\Debug\Scope-CY8CKIT-59.a(CyLib.o)
 .text.CyIntGetState
                0x00000000       0x44 .\CortexM3\ARM_GCC_541\Debug\Scope-CY8CKIT-59.a(CyLib.o)
 .text.CySysTickStart
                0x00000000       0x24 .\CortexM3\ARM_GCC_541\Debug\Scope-CY8CKIT-59.a(CyLib.o)
 .text.CySysTickInit
                0x00000000       0x6c .\CortexM3\ARM_GCC_541\Debug\Scope-CY8CKIT-59.a(CyLib.o)
 .text.CySysTickEnable
                0x00000000       0x1c .\CortexM3\ARM_GCC_541\Debug\Scope-CY8CKIT-59.a(CyLib.o)
 .text.CySysTickStop
                0x00000000       0x1c .\CortexM3\ARM_GCC_541\Debug\Scope-CY8CKIT-59.a(CyLib.o)
 .text.CySysTickEnableInterrupt
                0x00000000       0x1c .\CortexM3\ARM_GCC_541\Debug\Scope-CY8CKIT-59.a(CyLib.o)
 .text.CySysTickDisableInterrupt
                0x00000000       0x1c .\CortexM3\ARM_GCC_541\Debug\Scope-CY8CKIT-59.a(CyLib.o)
 .text.CySysTickSetReload
                0x00000000       0x20 .\CortexM3\ARM_GCC_541\Debug\Scope-CY8CKIT-59.a(CyLib.o)
 .text.CySysTickGetReload
                0x00000000       0x18 .\CortexM3\ARM_GCC_541\Debug\Scope-CY8CKIT-59.a(CyLib.o)
 .text.CySysTickGetValue
                0x00000000       0x18 .\CortexM3\ARM_GCC_541\Debug\Scope-CY8CKIT-59.a(CyLib.o)
 .text.CySysTickSetClockSource
                0x00000000       0x38 .\CortexM3\ARM_GCC_541\Debug\Scope-CY8CKIT-59.a(CyLib.o)
 .text.CySysTickGetClockSource
                0x00000000       0x1c .\CortexM3\ARM_GCC_541\Debug\Scope-CY8CKIT-59.a(CyLib.o)
 .text.CySysTickGetCountFlag
                0x00000000       0x1c .\CortexM3\ARM_GCC_541\Debug\Scope-CY8CKIT-59.a(CyLib.o)
 .text.CySysTickClear
                0x00000000       0x18 .\CortexM3\ARM_GCC_541\Debug\Scope-CY8CKIT-59.a(CyLib.o)
 .text.CySysTickSetCallback
                0x00000000       0x30 .\CortexM3\ARM_GCC_541\Debug\Scope-CY8CKIT-59.a(CyLib.o)
 .text.CySysTickGetCallback
                0x00000000       0x20 .\CortexM3\ARM_GCC_541\Debug\Scope-CY8CKIT-59.a(CyLib.o)
 .text.CySysTickServiceCallbacks
                0x00000000       0x44 .\CortexM3\ARM_GCC_541\Debug\Scope-CY8CKIT-59.a(CyLib.o)
 .text          0x00000000        0x0 .\CortexM3\ARM_GCC_541\Debug\Scope-CY8CKIT-59.a(cyPm.o)
 .data          0x00000000        0x0 .\CortexM3\ARM_GCC_541\Debug\Scope-CY8CKIT-59.a(cyPm.o)
 .bss           0x00000000       0x43 .\CortexM3\ARM_GCC_541\Debug\Scope-CY8CKIT-59.a(cyPm.o)
 .rodata        0x00000000        0xf .\CortexM3\ARM_GCC_541\Debug\Scope-CY8CKIT-59.a(cyPm.o)
 .text.CyPmSaveClocks
                0x00000000      0x288 .\CortexM3\ARM_GCC_541\Debug\Scope-CY8CKIT-59.a(cyPm.o)
 .text.CyPmRestoreClocks
                0x00000000      0x2f0 .\CortexM3\ARM_GCC_541\Debug\Scope-CY8CKIT-59.a(cyPm.o)
 .text.CyPmAltAct
                0x00000000       0xbc .\CortexM3\ARM_GCC_541\Debug\Scope-CY8CKIT-59.a(cyPm.o)
 .text.CyPmSleep
                0x00000000      0x170 .\CortexM3\ARM_GCC_541\Debug\Scope-CY8CKIT-59.a(cyPm.o)
 .text.CyPmHibernate
                0x00000000       0x10 .\CortexM3\ARM_GCC_541\Debug\Scope-CY8CKIT-59.a(cyPm.o)
 .text.CyPmHibernateEx
                0x00000000      0x158 .\CortexM3\ARM_GCC_541\Debug\Scope-CY8CKIT-59.a(cyPm.o)
 .text.CyPmReadStatus
                0x00000000       0x5c .\CortexM3\ARM_GCC_541\Debug\Scope-CY8CKIT-59.a(cyPm.o)
 .text.CyPmHibSaveSet
                0x00000000       0xe8 .\CortexM3\ARM_GCC_541\Debug\Scope-CY8CKIT-59.a(cyPm.o)
 .text.CyPmHibRestore
                0x00000000       0x78 .\CortexM3\ARM_GCC_541\Debug\Scope-CY8CKIT-59.a(cyPm.o)
 .text.CyPmCtwSetInterval
                0x00000000       0x94 .\CortexM3\ARM_GCC_541\Debug\Scope-CY8CKIT-59.a(cyPm.o)
 .text.CyPmOppsSet
                0x00000000       0x44 .\CortexM3\ARM_GCC_541\Debug\Scope-CY8CKIT-59.a(cyPm.o)
 .text.CyPmFtwSetInterval
                0x00000000       0x94 .\CortexM3\ARM_GCC_541\Debug\Scope-CY8CKIT-59.a(cyPm.o)
 .text.CyPmHibSlpSaveSet
                0x00000000      0x280 .\CortexM3\ARM_GCC_541\Debug\Scope-CY8CKIT-59.a(cyPm.o)
 .text.CyPmHibSlpRestore
                0x00000000      0x18c .\CortexM3\ARM_GCC_541\Debug\Scope-CY8CKIT-59.a(cyPm.o)
 .text.CyPmHviLviSaveDisable
                0x00000000       0xd8 .\CortexM3\ARM_GCC_541\Debug\Scope-CY8CKIT-59.a(cyPm.o)
 .text.CyPmHviLviRestore
                0x00000000       0x58 .\CortexM3\ARM_GCC_541\Debug\Scope-CY8CKIT-59.a(cyPm.o)
 .text          0x00000000        0x0 .\CortexM3\ARM_GCC_541\Debug\Scope-CY8CKIT-59.a(ADC_2.o)
 .data          0x00000000        0x0 .\CortexM3\ARM_GCC_541\Debug\Scope-CY8CKIT-59.a(ADC_2.o)
 .text.ADC_2_Stop
                0x00000000       0x5c .\CortexM3\ARM_GCC_541\Debug\Scope-CY8CKIT-59.a(ADC_2.o)
 .text.ADC_2_SetPower
                0x00000000       0x40 .\CortexM3\ARM_GCC_541\Debug\Scope-CY8CKIT-59.a(ADC_2.o)
 .text.ADC_2_IsEndConversion
                0x00000000       0x40 .\CortexM3\ARM_GCC_541\Debug\Scope-CY8CKIT-59.a(ADC_2.o)
 .text.ADC_2_GetResult8
                0x00000000       0x28 .\CortexM3\ARM_GCC_541\Debug\Scope-CY8CKIT-59.a(ADC_2.o)
 .text.ADC_2_GetResult16
                0x00000000       0x30 .\CortexM3\ARM_GCC_541\Debug\Scope-CY8CKIT-59.a(ADC_2.o)
 .text.ADC_2_SetOffset
                0x00000000       0x20 .\CortexM3\ARM_GCC_541\Debug\Scope-CY8CKIT-59.a(ADC_2.o)
 .text.ADC_2_SetGain
                0x00000000       0x2c .\CortexM3\ARM_GCC_541\Debug\Scope-CY8CKIT-59.a(ADC_2.o)
 .text.ADC_2_SetScaledGain
                0x00000000       0x1c .\CortexM3\ARM_GCC_541\Debug\Scope-CY8CKIT-59.a(ADC_2.o)
 .text.ADC_2_CountsTo_mVolts
                0x00000000       0x8c .\CortexM3\ARM_GCC_541\Debug\Scope-CY8CKIT-59.a(ADC_2.o)
 .text.ADC_2_CountsTo_uVolts
                0x00000000       0x90 .\CortexM3\ARM_GCC_541\Debug\Scope-CY8CKIT-59.a(ADC_2.o)
 .text.ADC_2_CountsTo_Volts
                0x00000000       0x84 .\CortexM3\ARM_GCC_541\Debug\Scope-CY8CKIT-59.a(ADC_2.o)
 .text          0x00000000        0x0 .\CortexM3\ARM_GCC_541\Debug\Scope-CY8CKIT-59.a(ADC_2_INT.o)
 .data          0x00000000        0x0 .\CortexM3\ARM_GCC_541\Debug\Scope-CY8CKIT-59.a(ADC_2_INT.o)
 .bss           0x00000000        0x0 .\CortexM3\ARM_GCC_541\Debug\Scope-CY8CKIT-59.a(ADC_2_INT.o)
 .text          0x00000000        0x0 .\CortexM3\ARM_GCC_541\Debug\Scope-CY8CKIT-59.a(ADC_1.o)
 .data          0x00000000        0x0 .\CortexM3\ARM_GCC_541\Debug\Scope-CY8CKIT-59.a(ADC_1.o)
 .text.ADC_1_Stop
                0x00000000       0x5c .\CortexM3\ARM_GCC_541\Debug\Scope-CY8CKIT-59.a(ADC_1.o)
 .text.ADC_1_SetPower
                0x00000000       0x40 .\CortexM3\ARM_GCC_541\Debug\Scope-CY8CKIT-59.a(ADC_1.o)
 .text.ADC_1_IsEndConversion
                0x00000000       0x40 .\CortexM3\ARM_GCC_541\Debug\Scope-CY8CKIT-59.a(ADC_1.o)
 .text.ADC_1_GetResult8
                0x00000000       0x28 .\CortexM3\ARM_GCC_541\Debug\Scope-CY8CKIT-59.a(ADC_1.o)
 .text.ADC_1_GetResult16
                0x00000000       0x30 .\CortexM3\ARM_GCC_541\Debug\Scope-CY8CKIT-59.a(ADC_1.o)
 .text.ADC_1_SetOffset
                0x00000000       0x20 .\CortexM3\ARM_GCC_541\Debug\Scope-CY8CKIT-59.a(ADC_1.o)
 .text.ADC_1_SetGain
                0x00000000       0x2c .\CortexM3\ARM_GCC_541\Debug\Scope-CY8CKIT-59.a(ADC_1.o)
 .text.ADC_1_SetScaledGain
                0x00000000       0x1c .\CortexM3\ARM_GCC_541\Debug\Scope-CY8CKIT-59.a(ADC_1.o)
 .text.ADC_1_CountsTo_mVolts
                0x00000000       0x8c .\CortexM3\ARM_GCC_541\Debug\Scope-CY8CKIT-59.a(ADC_1.o)
 .text.ADC_1_CountsTo_uVolts
                0x00000000       0x90 .\CortexM3\ARM_GCC_541\Debug\Scope-CY8CKIT-59.a(ADC_1.o)
 .text.ADC_1_CountsTo_Volts
                0x00000000       0x84 .\CortexM3\ARM_GCC_541\Debug\Scope-CY8CKIT-59.a(ADC_1.o)
 .text          0x00000000        0x0 .\CortexM3\ARM_GCC_541\Debug\Scope-CY8CKIT-59.a(ADC_1_INT.o)
 .data          0x00000000        0x0 .\CortexM3\ARM_GCC_541\Debug\Scope-CY8CKIT-59.a(ADC_1_INT.o)
 .bss           0x00000000        0x0 .\CortexM3\ARM_GCC_541\Debug\Scope-CY8CKIT-59.a(ADC_1_INT.o)
 .text          0x00000000        0x0 .\CortexM3\ARM_GCC_541\Debug\Scope-CY8CKIT-59.a(USBUART.o)
 .data          0x00000000        0x0 .\CortexM3\ARM_GCC_541\Debug\Scope-CY8CKIT-59.a(USBUART.o)
 .text.USBUART_Stop
                0x00000000      0x10c .\CortexM3\ARM_GCC_541\Debug\Scope-CY8CKIT-59.a(USBUART.o)
 .text.USBUART_CheckActivity
                0x00000000       0x38 .\CortexM3\ARM_GCC_541\Debug\Scope-CY8CKIT-59.a(USBUART.o)
 .text.USBUART_IsConfigurationChanged
                0x00000000       0x30 .\CortexM3\ARM_GCC_541\Debug\Scope-CY8CKIT-59.a(USBUART.o)
 .text.USBUART_GetInterfaceSetting
                0x00000000       0x20 .\CortexM3\ARM_GCC_541\Debug\Scope-CY8CKIT-59.a(USBUART.o)
 .text.USBUART_DisableOutEP
                0x00000000       0x34 .\CortexM3\ARM_GCC_541\Debug\Scope-CY8CKIT-59.a(USBUART.o)
 .text.USBUART_Force
                0x00000000       0x20 .\CortexM3\ARM_GCC_541\Debug\Scope-CY8CKIT-59.a(USBUART.o)
 .text.USBUART_GetEPAckState
                0x00000000       0x40 .\CortexM3\ARM_GCC_541\Debug\Scope-CY8CKIT-59.a(USBUART.o)
 .text.USBUART_SetPowerStatus
                0x00000000       0x40 .\CortexM3\ARM_GCC_541\Debug\Scope-CY8CKIT-59.a(USBUART.o)
 .text.USBUART_RWUEnabled
                0x00000000       0x2c .\CortexM3\ARM_GCC_541\Debug\Scope-CY8CKIT-59.a(USBUART.o)
 .text.USBUART_GetDeviceAddress
                0x00000000       0x1c .\CortexM3\ARM_GCC_541\Debug\Scope-CY8CKIT-59.a(USBUART.o)
 .text.USBUART_EnableSofInt
                0x00000000       0x18 .\CortexM3\ARM_GCC_541\Debug\Scope-CY8CKIT-59.a(USBUART.o)
 .text.USBUART_DisableSofInt
                0x00000000       0x18 .\CortexM3\ARM_GCC_541\Debug\Scope-CY8CKIT-59.a(USBUART.o)
 .text          0x00000000        0x0 .\CortexM3\ARM_GCC_541\Debug\Scope-CY8CKIT-59.a(USBUART_cdc.o)
 .rodata        0x00000000        0x2 .\CortexM3\ARM_GCC_541\Debug\Scope-CY8CKIT-59.a(USBUART_cdc.o)
 .text.USBUART_PutCRLF
                0x00000000       0x38 .\CortexM3\ARM_GCC_541\Debug\Scope-CY8CKIT-59.a(USBUART_cdc.o)
 .text.USBUART_GetData
                0x00000000       0x3c .\CortexM3\ARM_GCC_541\Debug\Scope-CY8CKIT-59.a(USBUART_cdc.o)
 .text.USBUART_GetChar
                0x00000000       0x30 .\CortexM3\ARM_GCC_541\Debug\Scope-CY8CKIT-59.a(USBUART_cdc.o)
 .text.USBUART_GetDTERate
                0x00000000       0x8c .\CortexM3\ARM_GCC_541\Debug\Scope-CY8CKIT-59.a(USBUART_cdc.o)
 .text.USBUART_GetCharFormat
                0x00000000       0x2c .\CortexM3\ARM_GCC_541\Debug\Scope-CY8CKIT-59.a(USBUART_cdc.o)
 .text.USBUART_GetParityType
                0x00000000       0x2c .\CortexM3\ARM_GCC_541\Debug\Scope-CY8CKIT-59.a(USBUART_cdc.o)
 .text.USBUART_GetDataBits
                0x00000000       0x2c .\CortexM3\ARM_GCC_541\Debug\Scope-CY8CKIT-59.a(USBUART_cdc.o)
 .text.USBUART_GetLineControl
                0x00000000       0x24 .\CortexM3\ARM_GCC_541\Debug\Scope-CY8CKIT-59.a(USBUART_cdc.o)
 .text.USBUART_SendSerialState
                0x00000000       0xa8 .\CortexM3\ARM_GCC_541\Debug\Scope-CY8CKIT-59.a(USBUART_cdc.o)
 .text.USBUART_GetSerialState
                0x00000000       0x24 .\CortexM3\ARM_GCC_541\Debug\Scope-CY8CKIT-59.a(USBUART_cdc.o)
 .text.USBUART_NotificationIsReady
                0x00000000       0x38 .\CortexM3\ARM_GCC_541\Debug\Scope-CY8CKIT-59.a(USBUART_cdc.o)
 .text.USBUART_SetComPort
                0x00000000       0x30 .\CortexM3\ARM_GCC_541\Debug\Scope-CY8CKIT-59.a(USBUART_cdc.o)
 .text.USBUART_GetComPort
                0x00000000       0x14 .\CortexM3\ARM_GCC_541\Debug\Scope-CY8CKIT-59.a(USBUART_cdc.o)
 .text          0x00000000        0x0 .\CortexM3\ARM_GCC_541\Debug\Scope-CY8CKIT-59.a(USBUART_drv.o)
 .data          0x00000000        0x0 .\CortexM3\ARM_GCC_541\Debug\Scope-CY8CKIT-59.a(USBUART_drv.o)
 .bss           0x00000000        0x0 .\CortexM3\ARM_GCC_541\Debug\Scope-CY8CKIT-59.a(USBUART_drv.o)
 .text          0x00000000        0x0 .\CortexM3\ARM_GCC_541\Debug\Scope-CY8CKIT-59.a(USBUART_episr.o)
 .data          0x00000000        0x0 .\CortexM3\ARM_GCC_541\Debug\Scope-CY8CKIT-59.a(USBUART_episr.o)
 .bss           0x00000000        0x0 .\CortexM3\ARM_GCC_541\Debug\Scope-CY8CKIT-59.a(USBUART_episr.o)
 .text          0x00000000        0x0 .\CortexM3\ARM_GCC_541\Debug\Scope-CY8CKIT-59.a(USBUART_pm.o)
 .data          0x00000000        0x0 .\CortexM3\ARM_GCC_541\Debug\Scope-CY8CKIT-59.a(USBUART_pm.o)
 .bss           0x00000000        0x2 .\CortexM3\ARM_GCC_541\Debug\Scope-CY8CKIT-59.a(USBUART_pm.o)
 .text.USBUART_SaveConfig
                0x00000000        0xc .\CortexM3\ARM_GCC_541\Debug\Scope-CY8CKIT-59.a(USBUART_pm.o)
 .text.USBUART_RestoreConfig
                0x00000000       0x20 .\CortexM3\ARM_GCC_541\Debug\Scope-CY8CKIT-59.a(USBUART_pm.o)
 .text.USBUART_Suspend
                0x00000000      0x11c .\CortexM3\ARM_GCC_541\Debug\Scope-CY8CKIT-59.a(USBUART_pm.o)
 .text.USBUART_Resume
                0x00000000      0x100 .\CortexM3\ARM_GCC_541\Debug\Scope-CY8CKIT-59.a(USBUART_pm.o)
 .text          0x00000000        0x0 .\CortexM3\ARM_GCC_541\Debug\Scope-CY8CKIT-59.a(USBUART_std.o)
 .data          0x00000000        0x0 .\CortexM3\ARM_GCC_541\Debug\Scope-CY8CKIT-59.a(USBUART_std.o)
 .text.USBUART_EpStateInit
                0x00000000       0x6c .\CortexM3\ARM_GCC_541\Debug\Scope-CY8CKIT-59.a(USBUART_std.o)
 .text.USBUART_TerminateEP
                0x00000000       0xc0 .\CortexM3\ARM_GCC_541\Debug\Scope-CY8CKIT-59.a(USBUART_std.o)
 .text          0x00000000        0x0 .\CortexM3\ARM_GCC_541\Debug\Scope-CY8CKIT-59.a(USBUART_vnd.o)
 .data          0x00000000        0x0 .\CortexM3\ARM_GCC_541\Debug\Scope-CY8CKIT-59.a(USBUART_vnd.o)
 .bss           0x00000000        0x0 .\CortexM3\ARM_GCC_541\Debug\Scope-CY8CKIT-59.a(USBUART_vnd.o)
 .text          0x00000000        0x0 .\CortexM3\ARM_GCC_541\Debug\Scope-CY8CKIT-59.a(SampleClock.o)
 .data          0x00000000        0x0 .\CortexM3\ARM_GCC_541\Debug\Scope-CY8CKIT-59.a(SampleClock.o)
 .bss           0x00000000        0x0 .\CortexM3\ARM_GCC_541\Debug\Scope-CY8CKIT-59.a(SampleClock.o)
 .text.SampleClock_Start
                0x00000000       0x34 .\CortexM3\ARM_GCC_541\Debug\Scope-CY8CKIT-59.a(SampleClock.o)
 .text.SampleClock_Stop
                0x00000000       0x34 .\CortexM3\ARM_GCC_541\Debug\Scope-CY8CKIT-59.a(SampleClock.o)
 .text.SampleClock_StopBlock
                0x00000000       0xb0 .\CortexM3\ARM_GCC_541\Debug\Scope-CY8CKIT-59.a(SampleClock.o)
 .text.SampleClock_StandbyPower
                0x00000000       0x40 .\CortexM3\ARM_GCC_541\Debug\Scope-CY8CKIT-59.a(SampleClock.o)
 .text.SampleClock_SetModeRegister
                0x00000000       0x34 .\CortexM3\ARM_GCC_541\Debug\Scope-CY8CKIT-59.a(SampleClock.o)
 .text.SampleClock_ClearModeRegister
                0x00000000       0x34 .\CortexM3\ARM_GCC_541\Debug\Scope-CY8CKIT-59.a(SampleClock.o)
 .text.SampleClock_GetModeRegister
                0x00000000       0x1c .\CortexM3\ARM_GCC_541\Debug\Scope-CY8CKIT-59.a(SampleClock.o)
 .text.SampleClock_SetSourceRegister
                0x00000000       0xc4 .\CortexM3\ARM_GCC_541\Debug\Scope-CY8CKIT-59.a(SampleClock.o)
 .text          0x00000000        0x0 .\CortexM3\ARM_GCC_541\Debug\Scope-CY8CKIT-59.a(Vtrigger.o)
 .data          0x00000000        0x0 .\CortexM3\ARM_GCC_541\Debug\Scope-CY8CKIT-59.a(Vtrigger.o)
 .text.Vtrigger_Stop
                0x00000000       0x34 .\CortexM3\ARM_GCC_541\Debug\Scope-CY8CKIT-59.a(Vtrigger.o)
 .text          0x00000000        0x0 .\CortexM3\ARM_GCC_541\Debug\Scope-CY8CKIT-59.a(Amux_Trigger.o)
 .bss           0x00000000        0x0 .\CortexM3\ARM_GCC_541\Debug\Scope-CY8CKIT-59.a(Amux_Trigger.o)
 .text.Amux_Trigger_Start
                0x00000000       0x34 .\CortexM3\ARM_GCC_541\Debug\Scope-CY8CKIT-59.a(Amux_Trigger.o)
 .text.Amux_Trigger_DisconnectAll
                0x00000000       0x24 .\CortexM3\ARM_GCC_541\Debug\Scope-CY8CKIT-59.a(Amux_Trigger.o)
 .text          0x00000000        0x0 .\CortexM3\ARM_GCC_541\Debug\Scope-CY8CKIT-59.a(DMA_Channel_1_dma.o)
 .bss           0x00000000        0x0 .\CortexM3\ARM_GCC_541\Debug\Scope-CY8CKIT-59.a(DMA_Channel_1_dma.o)
 .text.DMA_Channel_1_DmaRelease
                0x00000000       0x18 .\CortexM3\ARM_GCC_541\Debug\Scope-CY8CKIT-59.a(DMA_Channel_1_dma.o)
 .text          0x00000000        0x0 .\CortexM3\ARM_GCC_541\Debug\Scope-CY8CKIT-59.a(DMA_Channel_2_dma.o)
 .bss           0x00000000        0x0 .\CortexM3\ARM_GCC_541\Debug\Scope-CY8CKIT-59.a(DMA_Channel_2_dma.o)
 .text.DMA_Channel_2_DmaRelease
                0x00000000       0x18 .\CortexM3\ARM_GCC_541\Debug\Scope-CY8CKIT-59.a(DMA_Channel_2_dma.o)
 .text          0x00000000        0x0 .\CortexM3\ARM_GCC_541\Debug\Scope-CY8CKIT-59.a(PWM_Sample_Buffer.o)
 .data          0x00000000        0x0 .\CortexM3\ARM_GCC_541\Debug\Scope-CY8CKIT-59.a(PWM_Sample_Buffer.o)
 .text.PWM_Sample_Buffer_Stop
                0x00000000       0x20 .\CortexM3\ARM_GCC_541\Debug\Scope-CY8CKIT-59.a(PWM_Sample_Buffer.o)
 .text.PWM_Sample_Buffer_ReadCounter
                0x00000000       0x20 .\CortexM3\ARM_GCC_541\Debug\Scope-CY8CKIT-59.a(PWM_Sample_Buffer.o)
 .text.PWM_Sample_Buffer_ReadControlRegister
                0x00000000       0x1c .\CortexM3\ARM_GCC_541\Debug\Scope-CY8CKIT-59.a(PWM_Sample_Buffer.o)
 .text.PWM_Sample_Buffer_WriteControlRegister
                0x00000000       0x20 .\CortexM3\ARM_GCC_541\Debug\Scope-CY8CKIT-59.a(PWM_Sample_Buffer.o)
 .text.PWM_Sample_Buffer_ReadCompare
                0x00000000       0x18 .\CortexM3\ARM_GCC_541\Debug\Scope-CY8CKIT-59.a(PWM_Sample_Buffer.o)
 .text.PWM_Sample_Buffer_ReadPeriod
                0x00000000       0x18 .\CortexM3\ARM_GCC_541\Debug\Scope-CY8CKIT-59.a(PWM_Sample_Buffer.o)
 .text          0x00000000        0x0 .\CortexM3\ARM_GCC_541\Debug\Scope-CY8CKIT-59.a(USBUART_Dp.o)
 .data          0x00000000        0x0 .\CortexM3\ARM_GCC_541\Debug\Scope-CY8CKIT-59.a(USBUART_Dp.o)
 .bss           0x00000000        0x0 .\CortexM3\ARM_GCC_541\Debug\Scope-CY8CKIT-59.a(USBUART_Dp.o)
 .text.USBUART_Dp_Write
                0x00000000       0x3c .\CortexM3\ARM_GCC_541\Debug\Scope-CY8CKIT-59.a(USBUART_Dp.o)
 .text.USBUART_Dp_SetDriveMode
                0x00000000       0x3c .\CortexM3\ARM_GCC_541\Debug\Scope-CY8CKIT-59.a(USBUART_Dp.o)
 .text.USBUART_Dp_Read
                0x00000000       0x20 .\CortexM3\ARM_GCC_541\Debug\Scope-CY8CKIT-59.a(USBUART_Dp.o)
 .text.USBUART_Dp_ReadDataReg
                0x00000000       0x20 .\CortexM3\ARM_GCC_541\Debug\Scope-CY8CKIT-59.a(USBUART_Dp.o)
 .text.USBUART_Dp_SetInterruptMode
                0x00000000       0x30 .\CortexM3\ARM_GCC_541\Debug\Scope-CY8CKIT-59.a(USBUART_Dp.o)
 .text          0x00000000        0x0 .\CortexM3\ARM_GCC_541\Debug\Scope-CY8CKIT-59.a(Trigger_Control.o)
 .data          0x00000000        0x0 .\CortexM3\ARM_GCC_541\Debug\Scope-CY8CKIT-59.a(Trigger_Control.o)
 .bss           0x00000000        0x0 .\CortexM3\ARM_GCC_541\Debug\Scope-CY8CKIT-59.a(Trigger_Control.o)
 .text          0x00000000        0x0 .\CortexM3\ARM_GCC_541\Debug\Scope-CY8CKIT-59.a(Trigger_Status.o)
 .data          0x00000000        0x0 .\CortexM3\ARM_GCC_541\Debug\Scope-CY8CKIT-59.a(Trigger_Status.o)
 .bss           0x00000000        0x0 .\CortexM3\ARM_GCC_541\Debug\Scope-CY8CKIT-59.a(Trigger_Status.o)
 .text.Trigger_Status_InterruptEnable
                0x00000000       0x34 .\CortexM3\ARM_GCC_541\Debug\Scope-CY8CKIT-59.a(Trigger_Status.o)
 .text.Trigger_Status_InterruptDisable
                0x00000000       0x34 .\CortexM3\ARM_GCC_541\Debug\Scope-CY8CKIT-59.a(Trigger_Status.o)
 .text.Trigger_Status_WriteMask
                0x00000000       0x20 .\CortexM3\ARM_GCC_541\Debug\Scope-CY8CKIT-59.a(Trigger_Status.o)
 .text.Trigger_Status_ReadMask
                0x00000000       0x18 .\CortexM3\ARM_GCC_541\Debug\Scope-CY8CKIT-59.a(Trigger_Status.o)
 .text          0x00000000        0x0 .\CortexM3\ARM_GCC_541\Debug\Scope-CY8CKIT-59.a(Trigger_Comp.o)
 .data          0x00000000        0x0 .\CortexM3\ARM_GCC_541\Debug\Scope-CY8CKIT-59.a(Trigger_Comp.o)
 .text.Trigger_Comp_Stop
                0x00000000       0x34 .\CortexM3\ARM_GCC_541\Debug\Scope-CY8CKIT-59.a(Trigger_Comp.o)
 .text.Trigger_Comp_GetCompare
                0x00000000       0x1c .\CortexM3\ARM_GCC_541\Debug\Scope-CY8CKIT-59.a(Trigger_Comp.o)
 .text.Trigger_Comp_trimAdjust
                0x00000000       0xc0 .\CortexM3\ARM_GCC_541\Debug\Scope-CY8CKIT-59.a(Trigger_Comp.o)
 .text.Trigger_Comp_ZeroCal
                0x00000000       0xc4 .\CortexM3\ARM_GCC_541\Debug\Scope-CY8CKIT-59.a(Trigger_Comp.o)
 .text.Trigger_Comp_LoadTrim
                0x00000000       0x30 .\CortexM3\ARM_GCC_541\Debug\Scope-CY8CKIT-59.a(Trigger_Comp.o)
 .text.Trigger_Comp_PwrDwnOverrideEnable
                0x00000000       0x20 .\CortexM3\ARM_GCC_541\Debug\Scope-CY8CKIT-59.a(Trigger_Comp.o)
 .text.Trigger_Comp_PwrDwnOverrideDisable
                0x00000000       0x20 .\CortexM3\ARM_GCC_541\Debug\Scope-CY8CKIT-59.a(Trigger_Comp.o)
 .text          0x00000000        0x0 .\CortexM3\ARM_GCC_541\Debug\Scope-CY8CKIT-59.a(PRS.o)
 .data          0x00000000        0x4 .\CortexM3\ARM_GCC_541\Debug\Scope-CY8CKIT-59.a(PRS.o)
 .text.PRS_Stop
                0x00000000       0x20 .\CortexM3\ARM_GCC_541\Debug\Scope-CY8CKIT-59.a(PRS.o)
 .text.PRS_Read
                0x00000000       0x18 .\CortexM3\ARM_GCC_541\Debug\Scope-CY8CKIT-59.a(PRS.o)
 .text.PRS_ReadPolynomial
                0x00000000       0x18 .\CortexM3\ARM_GCC_541\Debug\Scope-CY8CKIT-59.a(PRS.o)
 .text          0x00000000        0x0 .\CortexM3\ARM_GCC_541\Debug\Scope-CY8CKIT-59.a(Wave_Control.o)
 .data          0x00000000        0x0 .\CortexM3\ARM_GCC_541\Debug\Scope-CY8CKIT-59.a(Wave_Control.o)
 .bss           0x00000000        0x0 .\CortexM3\ARM_GCC_541\Debug\Scope-CY8CKIT-59.a(Wave_Control.o)
 .text          0x00000000        0x0 .\CortexM3\ARM_GCC_541\Debug\Scope-CY8CKIT-59.a(Digital_Out_Control.o)
 .data          0x00000000        0x0 .\CortexM3\ARM_GCC_541\Debug\Scope-CY8CKIT-59.a(Digital_Out_Control.o)
 .bss           0x00000000        0x0 .\CortexM3\ARM_GCC_541\Debug\Scope-CY8CKIT-59.a(Digital_Out_Control.o)
 .text.Digital_Out_Control_Read
                0x00000000       0x18 .\CortexM3\ARM_GCC_541\Debug\Scope-CY8CKIT-59.a(Digital_Out_Control.o)
 .text          0x00000000        0x0 .\CortexM3\ARM_GCC_541\Debug\Scope-CY8CKIT-59.a(Digital_Input_Status.o)
 .data          0x00000000        0x0 .\CortexM3\ARM_GCC_541\Debug\Scope-CY8CKIT-59.a(Digital_Input_Status.o)
 .bss           0x00000000        0x0 .\CortexM3\ARM_GCC_541\Debug\Scope-CY8CKIT-59.a(Digital_Input_Status.o)
 .text.Digital_Input_Status_InterruptEnable
                0x00000000       0x34 .\CortexM3\ARM_GCC_541\Debug\Scope-CY8CKIT-59.a(Digital_Input_Status.o)
 .text.Digital_Input_Status_InterruptDisable
                0x00000000       0x34 .\CortexM3\ARM_GCC_541\Debug\Scope-CY8CKIT-59.a(Digital_Input_Status.o)
 .text.Digital_Input_Status_WriteMask
                0x00000000       0x20 .\CortexM3\ARM_GCC_541\Debug\Scope-CY8CKIT-59.a(Digital_Input_Status.o)
 .text.Digital_Input_Status_ReadMask
                0x00000000       0x18 .\CortexM3\ARM_GCC_541\Debug\Scope-CY8CKIT-59.a(Digital_Input_Status.o)
 .text          0x00000000        0x0 .\CortexM3\ARM_GCC_541\Debug\Scope-CY8CKIT-59.a(PWM_Clock.o)
 .data          0x00000000        0x0 .\CortexM3\ARM_GCC_541\Debug\Scope-CY8CKIT-59.a(PWM_Clock.o)
 .bss           0x00000000        0x0 .\CortexM3\ARM_GCC_541\Debug\Scope-CY8CKIT-59.a(PWM_Clock.o)
 .text.PWM_Clock_Start
                0x00000000       0x34 .\CortexM3\ARM_GCC_541\Debug\Scope-CY8CKIT-59.a(PWM_Clock.o)
 .text.PWM_Clock_Stop
                0x00000000       0x34 .\CortexM3\ARM_GCC_541\Debug\Scope-CY8CKIT-59.a(PWM_Clock.o)
 .text.PWM_Clock_StopBlock
                0x00000000       0xb0 .\CortexM3\ARM_GCC_541\Debug\Scope-CY8CKIT-59.a(PWM_Clock.o)
 .text.PWM_Clock_StandbyPower
                0x00000000       0x40 .\CortexM3\ARM_GCC_541\Debug\Scope-CY8CKIT-59.a(PWM_Clock.o)
 .text.PWM_Clock_SetModeRegister
                0x00000000       0x34 .\CortexM3\ARM_GCC_541\Debug\Scope-CY8CKIT-59.a(PWM_Clock.o)
 .text.PWM_Clock_ClearModeRegister
                0x00000000       0x34 .\CortexM3\ARM_GCC_541\Debug\Scope-CY8CKIT-59.a(PWM_Clock.o)
 .text.PWM_Clock_GetModeRegister
                0x00000000       0x1c .\CortexM3\ARM_GCC_541\Debug\Scope-CY8CKIT-59.a(PWM_Clock.o)
 .text.PWM_Clock_SetSourceRegister
                0x00000000       0xc4 .\CortexM3\ARM_GCC_541\Debug\Scope-CY8CKIT-59.a(PWM_Clock.o)
 .text          0x00000000        0x0 .\CortexM3\ARM_GCC_541\Debug\Scope-CY8CKIT-59.a(Digital_PWM.o)
 .data          0x00000000        0x0 .\CortexM3\ARM_GCC_541\Debug\Scope-CY8CKIT-59.a(Digital_PWM.o)
 .text.Digital_PWM_Stop
                0x00000000       0x20 .\CortexM3\ARM_GCC_541\Debug\Scope-CY8CKIT-59.a(Digital_PWM.o)
 .text.Digital_PWM_ReadCounter
                0x00000000       0x20 .\CortexM3\ARM_GCC_541\Debug\Scope-CY8CKIT-59.a(Digital_PWM.o)
 .text.Digital_PWM_ReadControlRegister
                0x00000000       0x1c .\CortexM3\ARM_GCC_541\Debug\Scope-CY8CKIT-59.a(Digital_PWM.o)
 .text.Digital_PWM_WriteControlRegister
                0x00000000       0x20 .\CortexM3\ARM_GCC_541\Debug\Scope-CY8CKIT-59.a(Digital_PWM.o)
 .text.Digital_PWM_ReadCompare1
                0x00000000       0x18 .\CortexM3\ARM_GCC_541\Debug\Scope-CY8CKIT-59.a(Digital_PWM.o)
 .text.Digital_PWM_ReadCompare2
                0x00000000       0x18 .\CortexM3\ARM_GCC_541\Debug\Scope-CY8CKIT-59.a(Digital_PWM.o)
 .text.Digital_PWM_ReadPeriod
                0x00000000       0x18 .\CortexM3\ARM_GCC_541\Debug\Scope-CY8CKIT-59.a(Digital_PWM.o)
 .text          0x00000000        0x0 .\CortexM3\ARM_GCC_541\Debug\Scope-CY8CKIT-59.a(ScopeA_Buf.o)
 .data          0x00000000        0x0 .\CortexM3\ARM_GCC_541\Debug\Scope-CY8CKIT-59.a(ScopeA_Buf.o)
 .text.ScopeA_Buf_Stop
                0x00000000       0x34 .\CortexM3\ARM_GCC_541\Debug\Scope-CY8CKIT-59.a(ScopeA_Buf.o)
 .text          0x00000000        0x0 .\CortexM3\ARM_GCC_541\Debug\Scope-CY8CKIT-59.a(ScopeB_Buf.o)
 .data          0x00000000        0x0 .\CortexM3\ARM_GCC_541\Debug\Scope-CY8CKIT-59.a(ScopeB_Buf.o)
 .text.ScopeB_Buf_Stop
                0x00000000       0x34 .\CortexM3\ARM_GCC_541\Debug\Scope-CY8CKIT-59.a(ScopeB_Buf.o)
 .text          0x00000000        0x0 .\CortexM3\ARM_GCC_541\Debug\Scope-CY8CKIT-59.a(WaveB_DAC.o)
 .data          0x00000000        0x0 .\CortexM3\ARM_GCC_541\Debug\Scope-CY8CKIT-59.a(WaveB_DAC.o)
 .text.WaveB_DAC_StartEx
                0x00000000       0x34 .\CortexM3\ARM_GCC_541\Debug\Scope-CY8CKIT-59.a(WaveB_DAC.o)
 .text.WaveB_DAC_Stop
                0x00000000       0x28 .\CortexM3\ARM_GCC_541\Debug\Scope-CY8CKIT-59.a(WaveB_DAC.o)
 .text          0x00000000        0x0 .\CortexM3\ARM_GCC_541\Debug\Scope-CY8CKIT-59.a(WaveB_Buf.o)
 .data          0x00000000        0x0 .\CortexM3\ARM_GCC_541\Debug\Scope-CY8CKIT-59.a(WaveB_Buf.o)
 .text.WaveB_Buf_Stop
                0x00000000       0x54 .\CortexM3\ARM_GCC_541\Debug\Scope-CY8CKIT-59.a(WaveB_Buf.o)
 .text          0x00000000        0x0 .\CortexM3\ARM_GCC_541\Debug\Scope-CY8CKIT-59.a(AuxDAC_1.o)
 .data          0x00000000        0x0 .\CortexM3\ARM_GCC_541\Debug\Scope-CY8CKIT-59.a(AuxDAC_1.o)
 .text.AuxDAC_1_Stop
                0x00000000       0x34 .\CortexM3\ARM_GCC_541\Debug\Scope-CY8CKIT-59.a(AuxDAC_1.o)
 .text          0x00000000        0x0 .\CortexM3\ARM_GCC_541\Debug\Scope-CY8CKIT-59.a(AMux_1.o)
 .bss           0x00000000        0x0 .\CortexM3\ARM_GCC_541\Debug\Scope-CY8CKIT-59.a(AMux_1.o)
 .text.AMux_1_FastSelect
                0x00000000       0x38 .\CortexM3\ARM_GCC_541\Debug\Scope-CY8CKIT-59.a(AMux_1.o)
 .text          0x00000000        0x0 .\CortexM3\ARM_GCC_541\Debug\Scope-CY8CKIT-59.a(AuxDAC_Buf.o)
 .data          0x00000000        0x0 .\CortexM3\ARM_GCC_541\Debug\Scope-CY8CKIT-59.a(AuxDAC_Buf.o)
 .text.AuxDAC_Buf_Stop
                0x00000000       0x54 .\CortexM3\ARM_GCC_541\Debug\Scope-CY8CKIT-59.a(AuxDAC_Buf.o)
 .text          0x00000000        0x0 .\CortexM3\ARM_GCC_541\Debug\Scope-CY8CKIT-59.a(WaveA_DAC.o)
 .data          0x00000000        0x0 .\CortexM3\ARM_GCC_541\Debug\Scope-CY8CKIT-59.a(WaveA_DAC.o)
 .text.WaveA_DAC_StartEx
                0x00000000       0x34 .\CortexM3\ARM_GCC_541\Debug\Scope-CY8CKIT-59.a(WaveA_DAC.o)
 .text.WaveA_DAC_Stop
                0x00000000       0x28 .\CortexM3\ARM_GCC_541\Debug\Scope-CY8CKIT-59.a(WaveA_DAC.o)
 .text          0x00000000        0x0 .\CortexM3\ARM_GCC_541\Debug\Scope-CY8CKIT-59.a(WaveA_Buf.o)
 .data          0x00000000        0x0 .\CortexM3\ARM_GCC_541\Debug\Scope-CY8CKIT-59.a(WaveA_Buf.o)
 .text.WaveA_Buf_Stop
                0x00000000       0x54 .\CortexM3\ARM_GCC_541\Debug\Scope-CY8CKIT-59.a(WaveA_Buf.o)
 .text          0x00000000        0x0 .\CortexM3\ARM_GCC_541\Debug\Scope-CY8CKIT-59.a(WaveA_Clock.o)
 .data          0x00000000        0x0 .\CortexM3\ARM_GCC_541\Debug\Scope-CY8CKIT-59.a(WaveA_Clock.o)
 .bss           0x00000000        0x0 .\CortexM3\ARM_GCC_541\Debug\Scope-CY8CKIT-59.a(WaveA_Clock.o)
 .text.WaveA_Clock_Start
                0x00000000       0x34 .\CortexM3\ARM_GCC_541\Debug\Scope-CY8CKIT-59.a(WaveA_Clock.o)
 .text.WaveA_Clock_Stop
                0x00000000       0x34 .\CortexM3\ARM_GCC_541\Debug\Scope-CY8CKIT-59.a(WaveA_Clock.o)
 .text.WaveA_Clock_StopBlock
                0x00000000       0xb0 .\CortexM3\ARM_GCC_541\Debug\Scope-CY8CKIT-59.a(WaveA_Clock.o)
 .text.WaveA_Clock_StandbyPower
                0x00000000       0x40 .\CortexM3\ARM_GCC_541\Debug\Scope-CY8CKIT-59.a(WaveA_Clock.o)
 .text.WaveA_Clock_SetModeRegister
                0x00000000       0x34 .\CortexM3\ARM_GCC_541\Debug\Scope-CY8CKIT-59.a(WaveA_Clock.o)
 .text.WaveA_Clock_ClearModeRegister
                0x00000000       0x34 .\CortexM3\ARM_GCC_541\Debug\Scope-CY8CKIT-59.a(WaveA_Clock.o)
 .text.WaveA_Clock_GetModeRegister
                0x00000000       0x1c .\CortexM3\ARM_GCC_541\Debug\Scope-CY8CKIT-59.a(WaveA_Clock.o)
 .text.WaveA_Clock_SetSourceRegister
                0x00000000       0xc4 .\CortexM3\ARM_GCC_541\Debug\Scope-CY8CKIT-59.a(WaveA_Clock.o)
 .text          0x00000000        0x0 .\CortexM3\ARM_GCC_541\Debug\Scope-CY8CKIT-59.a(AMux_2.o)
 .bss           0x00000000        0x0 .\CortexM3\ARM_GCC_541\Debug\Scope-CY8CKIT-59.a(AMux_2.o)
 .text.AMux_2_FastSelect
                0x00000000       0x38 .\CortexM3\ARM_GCC_541\Debug\Scope-CY8CKIT-59.a(AMux_2.o)
 .text          0x00000000        0x0 .\CortexM3\ARM_GCC_541\Debug\Scope-CY8CKIT-59.a(ScopeC_Buf.o)
 .data          0x00000000        0x0 .\CortexM3\ARM_GCC_541\Debug\Scope-CY8CKIT-59.a(ScopeC_Buf.o)
 .text.ScopeC_Buf_Stop
                0x00000000       0x34 .\CortexM3\ARM_GCC_541\Debug\Scope-CY8CKIT-59.a(ScopeC_Buf.o)
 .text          0x00000000        0x0 .\CortexM3\ARM_GCC_541\Debug\Scope-CY8CKIT-59.a(ScopeD_Buf.o)
 .data          0x00000000        0x0 .\CortexM3\ARM_GCC_541\Debug\Scope-CY8CKIT-59.a(ScopeD_Buf.o)
 .text.ScopeD_Buf_Stop
                0x00000000       0x34 .\CortexM3\ARM_GCC_541\Debug\Scope-CY8CKIT-59.a(ScopeD_Buf.o)
 .text          0x00000000        0x0 .\CortexM3\ARM_GCC_541\Debug\Scope-CY8CKIT-59.a(WaveB_DAC_Wave1_DMA_dma.o)
 .bss           0x00000000        0x0 .\CortexM3\ARM_GCC_541\Debug\Scope-CY8CKIT-59.a(WaveB_DAC_Wave1_DMA_dma.o)
 .text.WaveB_DAC_Wave1_DMA_DmaRelease
                0x00000000       0x18 .\CortexM3\ARM_GCC_541\Debug\Scope-CY8CKIT-59.a(WaveB_DAC_Wave1_DMA_dma.o)
 .text          0x00000000        0x0 .\CortexM3\ARM_GCC_541\Debug\Scope-CY8CKIT-59.a(WaveB_DAC_Wave2_DMA_dma.o)
 .bss           0x00000000        0x0 .\CortexM3\ARM_GCC_541\Debug\Scope-CY8CKIT-59.a(WaveB_DAC_Wave2_DMA_dma.o)
 .text.WaveB_DAC_Wave2_DMA_DmaRelease
                0x00000000       0x18 .\CortexM3\ARM_GCC_541\Debug\Scope-CY8CKIT-59.a(WaveB_DAC_Wave2_DMA_dma.o)
 .text          0x00000000        0x0 .\CortexM3\ARM_GCC_541\Debug\Scope-CY8CKIT-59.a(WaveB_DAC_VDAC8.o)
 .data          0x00000000        0x0 .\CortexM3\ARM_GCC_541\Debug\Scope-CY8CKIT-59.a(WaveB_DAC_VDAC8.o)
 .bss           0x00000000        0x1 .\CortexM3\ARM_GCC_541\Debug\Scope-CY8CKIT-59.a(WaveB_DAC_VDAC8.o)
 .text.WaveB_DAC_VDAC8_Start
                0x00000000       0x28 .\CortexM3\ARM_GCC_541\Debug\Scope-CY8CKIT-59.a(WaveB_DAC_VDAC8.o)
 .text.WaveB_DAC_VDAC8_Stop
                0x00000000       0x34 .\CortexM3\ARM_GCC_541\Debug\Scope-CY8CKIT-59.a(WaveB_DAC_VDAC8.o)
 .text          0x00000000        0x0 .\CortexM3\ARM_GCC_541\Debug\Scope-CY8CKIT-59.a(WaveA_DAC_Wave1_DMA_dma.o)
 .bss           0x00000000        0x0 .\CortexM3\ARM_GCC_541\Debug\Scope-CY8CKIT-59.a(WaveA_DAC_Wave1_DMA_dma.o)
 .text.WaveA_DAC_Wave1_DMA_DmaRelease
                0x00000000       0x18 .\CortexM3\ARM_GCC_541\Debug\Scope-CY8CKIT-59.a(WaveA_DAC_Wave1_DMA_dma.o)
 .text          0x00000000        0x0 .\CortexM3\ARM_GCC_541\Debug\Scope-CY8CKIT-59.a(WaveA_DAC_Wave2_DMA_dma.o)
 .bss           0x00000000        0x0 .\CortexM3\ARM_GCC_541\Debug\Scope-CY8CKIT-59.a(WaveA_DAC_Wave2_DMA_dma.o)
 .text.WaveA_DAC_Wave2_DMA_DmaRelease
                0x00000000       0x18 .\CortexM3\ARM_GCC_541\Debug\Scope-CY8CKIT-59.a(WaveA_DAC_Wave2_DMA_dma.o)
 .text          0x00000000        0x0 .\CortexM3\ARM_GCC_541\Debug\Scope-CY8CKIT-59.a(WaveA_DAC_VDAC8.o)
 .data          0x00000000        0x0 .\CortexM3\ARM_GCC_541\Debug\Scope-CY8CKIT-59.a(WaveA_DAC_VDAC8.o)
 .bss           0x00000000        0x1 .\CortexM3\ARM_GCC_541\Debug\Scope-CY8CKIT-59.a(WaveA_DAC_VDAC8.o)
 .text.WaveA_DAC_VDAC8_Start
                0x00000000       0x28 .\CortexM3\ARM_GCC_541\Debug\Scope-CY8CKIT-59.a(WaveA_DAC_VDAC8.o)
 .text.WaveA_DAC_VDAC8_Stop
                0x00000000       0x34 .\CortexM3\ARM_GCC_541\Debug\Scope-CY8CKIT-59.a(WaveA_DAC_VDAC8.o)
 .text          0x00000000        0x0 .\CortexM3\ARM_GCC_541\Debug\Scope-CY8CKIT-59.a(NoiseA_Clock.o)
 .data          0x00000000        0x0 .\CortexM3\ARM_GCC_541\Debug\Scope-CY8CKIT-59.a(NoiseA_Clock.o)
 .bss           0x00000000        0x0 .\CortexM3\ARM_GCC_541\Debug\Scope-CY8CKIT-59.a(NoiseA_Clock.o)
 .text.NoiseA_Clock_Start
                0x00000000       0x34 .\CortexM3\ARM_GCC_541\Debug\Scope-CY8CKIT-59.a(NoiseA_Clock.o)
 .text.NoiseA_Clock_Stop
                0x00000000       0x34 .\CortexM3\ARM_GCC_541\Debug\Scope-CY8CKIT-59.a(NoiseA_Clock.o)
 .text.NoiseA_Clock_StopBlock
                0x00000000       0xb0 .\CortexM3\ARM_GCC_541\Debug\Scope-CY8CKIT-59.a(NoiseA_Clock.o)
 .text.NoiseA_Clock_StandbyPower
                0x00000000       0x40 .\CortexM3\ARM_GCC_541\Debug\Scope-CY8CKIT-59.a(NoiseA_Clock.o)
 .text.NoiseA_Clock_SetModeRegister
                0x00000000       0x34 .\CortexM3\ARM_GCC_541\Debug\Scope-CY8CKIT-59.a(NoiseA_Clock.o)
 .text.NoiseA_Clock_ClearModeRegister
                0x00000000       0x34 .\CortexM3\ARM_GCC_541\Debug\Scope-CY8CKIT-59.a(NoiseA_Clock.o)
 .text.NoiseA_Clock_GetModeRegister
                0x00000000       0x1c .\CortexM3\ARM_GCC_541\Debug\Scope-CY8CKIT-59.a(NoiseA_Clock.o)
 .text.NoiseA_Clock_SetSourceRegister
                0x00000000       0xc4 .\CortexM3\ARM_GCC_541\Debug\Scope-CY8CKIT-59.a(NoiseA_Clock.o)
 .text          0x00000000        0x0 .\CortexM3\ARM_GCC_541\Debug\Scope-CY8CKIT-59.a(VRef_Buf.o)
 .data          0x00000000        0x0 .\CortexM3\ARM_GCC_541\Debug\Scope-CY8CKIT-59.a(VRef_Buf.o)
 .text.VRef_Buf_Stop
                0x00000000       0x54 .\CortexM3\ARM_GCC_541\Debug\Scope-CY8CKIT-59.a(VRef_Buf.o)
 .data          0x00000000        0x0 .\CortexM3\ARM_GCC_541\Debug\Scope-CY8CKIT-59.a(CyBootAsmGnu.o)
 .bss           0x00000000        0x0 .\CortexM3\ARM_GCC_541\Debug\Scope-CY8CKIT-59.a(CyBootAsmGnu.o)
 .text          0x00000000        0x0 .\CortexM3\ARM_GCC_541\Debug\Scope-CY8CKIT-59.a(CyFlash.o)
 .data          0x00000000        0x0 .\CortexM3\ARM_GCC_541\Debug\Scope-CY8CKIT-59.a(CyFlash.o)
 .bss           0x00000000        0x4 .\CortexM3\ARM_GCC_541\Debug\Scope-CY8CKIT-59.a(CyFlash.o)
 .text.CyFlash_Start
                0x00000000       0x8c .\CortexM3\ARM_GCC_541\Debug\Scope-CY8CKIT-59.a(CyFlash.o)
 .text.CyFlash_Stop
                0x00000000       0x48 .\CortexM3\ARM_GCC_541\Debug\Scope-CY8CKIT-59.a(CyFlash.o)
 .text.CyFlash_EraseRow
                0x00000000       0xb0 .\CortexM3\ARM_GCC_541\Debug\Scope-CY8CKIT-59.a(CyFlash.o)
 .text.CySetTempInt
                0x00000000       0x7c .\CortexM3\ARM_GCC_541\Debug\Scope-CY8CKIT-59.a(CyFlash.o)
 .text.CyFlashGetSpcAlgorithm
                0x00000000       0x70 .\CortexM3\ARM_GCC_541\Debug\Scope-CY8CKIT-59.a(CyFlash.o)
 .text.CySetTemp
                0x00000000       0x24 .\CortexM3\ARM_GCC_541\Debug\Scope-CY8CKIT-59.a(CyFlash.o)
 .text.CySetFlashEEBuffer
                0x00000000       0x54 .\CortexM3\ARM_GCC_541\Debug\Scope-CY8CKIT-59.a(CyFlash.o)
 .text.CyWriteRowData
                0x00000000       0x38 .\CortexM3\ARM_GCC_541\Debug\Scope-CY8CKIT-59.a(CyFlash.o)
 .text.CyWriteRowFull
                0x00000000      0x154 .\CortexM3\ARM_GCC_541\Debug\Scope-CY8CKIT-59.a(CyFlash.o)
 .text.CyFlash_SetWaitCycles
                0x00000000       0xbc .\CortexM3\ARM_GCC_541\Debug\Scope-CY8CKIT-59.a(CyFlash.o)
 .text.CyEEPROM_Start
                0x00000000       0x8c .\CortexM3\ARM_GCC_541\Debug\Scope-CY8CKIT-59.a(CyFlash.o)
 .text.CyEEPROM_Stop
                0x00000000       0x48 .\CortexM3\ARM_GCC_541\Debug\Scope-CY8CKIT-59.a(CyFlash.o)
 .text.CyEEPROM_ReadReserve
                0x00000000       0x30 .\CortexM3\ARM_GCC_541\Debug\Scope-CY8CKIT-59.a(CyFlash.o)
 .text.CyEEPROM_ReadRelease
                0x00000000       0x20 .\CortexM3\ARM_GCC_541\Debug\Scope-CY8CKIT-59.a(CyFlash.o)
 COMMON         0x00000000        0x2 .\CortexM3\ARM_GCC_541\Debug\Scope-CY8CKIT-59.a(CyFlash.o)
 .text          0x00000000        0x0 .\CortexM3\ARM_GCC_541\Debug\Scope-CY8CKIT-59.a(CySpc.o)
 .data          0x00000000        0x0 .\CortexM3\ARM_GCC_541\Debug\Scope-CY8CKIT-59.a(CySpc.o)
 .bss           0x00000000        0x8 .\CortexM3\ARM_GCC_541\Debug\Scope-CY8CKIT-59.a(CySpc.o)
 .text.CySpcStart
                0x00000000       0x48 .\CortexM3\ARM_GCC_541\Debug\Scope-CY8CKIT-59.a(CySpc.o)
 .text.CySpcStop
                0x00000000       0x48 .\CortexM3\ARM_GCC_541\Debug\Scope-CY8CKIT-59.a(CySpc.o)
 .text.CySpcReadData
                0x00000000       0x54 .\CortexM3\ARM_GCC_541\Debug\Scope-CY8CKIT-59.a(CySpc.o)
 .text.CySpcLoadMultiByte
                0x00000000       0xd0 .\CortexM3\ARM_GCC_541\Debug\Scope-CY8CKIT-59.a(CySpc.o)
 .text.CySpcLoadRow
                0x00000000       0x88 .\CortexM3\ARM_GCC_541\Debug\Scope-CY8CKIT-59.a(CySpc.o)
 .text.CySpcLoadRowFull
                0x00000000       0xcc .\CortexM3\ARM_GCC_541\Debug\Scope-CY8CKIT-59.a(CySpc.o)
 .text.CySpcWriteRow
                0x00000000       0x98 .\CortexM3\ARM_GCC_541\Debug\Scope-CY8CKIT-59.a(CySpc.o)
 .text.CySpcEraseSector
                0x00000000       0x70 .\CortexM3\ARM_GCC_541\Debug\Scope-CY8CKIT-59.a(CySpc.o)
 .text.CySpcEraseRow
                0x00000000       0x98 .\CortexM3\ARM_GCC_541\Debug\Scope-CY8CKIT-59.a(CySpc.o)
 .text.CySpcGetTemp
                0x00000000       0x64 .\CortexM3\ARM_GCC_541\Debug\Scope-CY8CKIT-59.a(CySpc.o)
 .text.CySpcLock
                0x00000000       0x68 .\CortexM3\ARM_GCC_541\Debug\Scope-CY8CKIT-59.a(CySpc.o)
 .text.CySpcUnlock
                0x00000000       0x50 .\CortexM3\ARM_GCC_541\Debug\Scope-CY8CKIT-59.a(CySpc.o)
 .text.CySpcGetAlgorithm
                0x00000000       0x44 .\CortexM3\ARM_GCC_541\Debug\Scope-CY8CKIT-59.a(CySpc.o)
 .text          0x00000000        0x0 .\CortexM3\ARM_GCC_541\Debug\Scope-CY8CKIT-59.a(USBUART_cls.o)
 .data          0x00000000        0x0 .\CortexM3\ARM_GCC_541\Debug\Scope-CY8CKIT-59.a(USBUART_cls.o)
 .bss           0x00000000        0x0 .\CortexM3\ARM_GCC_541\Debug\Scope-CY8CKIT-59.a(USBUART_cls.o)
 .text          0x00000000        0x0 .\CortexM3\ARM_GCC_541\Debug\Scope-CY8CKIT-59.a(USBUART_descr.o)
 .data          0x00000000        0x0 .\CortexM3\ARM_GCC_541\Debug\Scope-CY8CKIT-59.a(USBUART_descr.o)
 .bss           0x00000000        0x0 .\CortexM3\ARM_GCC_541\Debug\Scope-CY8CKIT-59.a(USBUART_descr.o)
 .data          0x00000000        0x0 c:/program files (x86)/cypress/psoc creator/4.4/psoc creator/import/gnu/arm/5.4.1/bin/../lib/gcc/arm-none-eabi/5.4.1/armv7-m\libgcc.a(_arm_addsubdf3.o)
 .bss           0x00000000        0x0 c:/program files (x86)/cypress/psoc creator/4.4/psoc creator/import/gnu/arm/5.4.1/bin/../lib/gcc/arm-none-eabi/5.4.1/armv7-m\libgcc.a(_arm_addsubdf3.o)
 .data          0x00000000        0x0 c:/program files (x86)/cypress/psoc creator/4.4/psoc creator/import/gnu/arm/5.4.1/bin/../lib/gcc/arm-none-eabi/5.4.1/armv7-m\libgcc.a(_arm_muldivdf3.o)
 .bss           0x00000000        0x0 c:/program files (x86)/cypress/psoc creator/4.4/psoc creator/import/gnu/arm/5.4.1/bin/../lib/gcc/arm-none-eabi/5.4.1/armv7-m\libgcc.a(_arm_muldivdf3.o)
 .data          0x00000000        0x0 c:/program files (x86)/cypress/psoc creator/4.4/psoc creator/import/gnu/arm/5.4.1/bin/../lib/gcc/arm-none-eabi/5.4.1/armv7-m\libgcc.a(_arm_fixunsdfsi.o)
 .bss           0x00000000        0x0 c:/program files (x86)/cypress/psoc creator/4.4/psoc creator/import/gnu/arm/5.4.1/bin/../lib/gcc/arm-none-eabi/5.4.1/armv7-m\libgcc.a(_arm_fixunsdfsi.o)
 .data          0x00000000        0x0 c:/program files (x86)/cypress/psoc creator/4.4/psoc creator/import/gnu/arm/5.4.1/bin/../lib/gcc/arm-none-eabi/5.4.1/armv7-m\libgcc.a(_arm_truncdfsf2.o)
 .bss           0x00000000        0x0 c:/program files (x86)/cypress/psoc creator/4.4/psoc creator/import/gnu/arm/5.4.1/bin/../lib/gcc/arm-none-eabi/5.4.1/armv7-m\libgcc.a(_arm_truncdfsf2.o)
 .data          0x00000000        0x0 c:/program files (x86)/cypress/psoc creator/4.4/psoc creator/import/gnu/arm/5.4.1/bin/../lib/gcc/arm-none-eabi/5.4.1/armv7-m\libgcc.a(_arm_addsubsf3.o)
 .bss           0x00000000        0x0 c:/program files (x86)/cypress/psoc creator/4.4/psoc creator/import/gnu/arm/5.4.1/bin/../lib/gcc/arm-none-eabi/5.4.1/armv7-m\libgcc.a(_arm_addsubsf3.o)
 .data          0x00000000        0x0 c:/program files (x86)/cypress/psoc creator/4.4/psoc creator/import/gnu/arm/5.4.1/bin/../lib/gcc/arm-none-eabi/5.4.1/armv7-m\libgcc.a(_arm_muldivsf3.o)
 .bss           0x00000000        0x0 c:/program files (x86)/cypress/psoc creator/4.4/psoc creator/import/gnu/arm/5.4.1/bin/../lib/gcc/arm-none-eabi/5.4.1/armv7-m\libgcc.a(_arm_muldivsf3.o)
 .data          0x00000000        0x0 c:/program files (x86)/cypress/psoc creator/4.4/psoc creator/import/gnu/arm/5.4.1/bin/../lib/gcc/arm-none-eabi/5.4.1/armv7-m\libgcc.a(_arm_cmpsf2.o)
 .bss           0x00000000        0x0 c:/program files (x86)/cypress/psoc creator/4.4/psoc creator/import/gnu/arm/5.4.1/bin/../lib/gcc/arm-none-eabi/5.4.1/armv7-m\libgcc.a(_arm_cmpsf2.o)
 .data          0x00000000        0x0 c:/program files (x86)/cypress/psoc creator/4.4/psoc creator/import/gnu/arm/5.4.1/bin/../lib/gcc/arm-none-eabi/5.4.1/armv7-m\libgcc.a(_arm_fixunssfsi.o)
 .bss           0x00000000        0x0 c:/program files (x86)/cypress/psoc creator/4.4/psoc creator/import/gnu/arm/5.4.1/bin/../lib/gcc/arm-none-eabi/5.4.1/armv7-m\libgcc.a(_arm_fixunssfsi.o)
 .text          0x00000000       0xa0 c:/program files (x86)/cypress/psoc creator/4.4/psoc creator/import/gnu/arm/5.4.1/bin/../lib/gcc/arm-none-eabi/5.4.1/armv7-m\libgcc.a(_aeabi_ldivmod.o)
 .data          0x00000000        0x0 c:/program files (x86)/cypress/psoc creator/4.4/psoc creator/import/gnu/arm/5.4.1/bin/../lib/gcc/arm-none-eabi/5.4.1/armv7-m\libgcc.a(_aeabi_ldivmod.o)
 .bss           0x00000000        0x0 c:/program files (x86)/cypress/psoc creator/4.4/psoc creator/import/gnu/arm/5.4.1/bin/../lib/gcc/arm-none-eabi/5.4.1/armv7-m\libgcc.a(_aeabi_ldivmod.o)
 .text          0x00000000      0x2ec c:/program files (x86)/cypress/psoc creator/4.4/psoc creator/import/gnu/arm/5.4.1/bin/../lib/gcc/arm-none-eabi/5.4.1/armv7-m\libgcc.a(_udivmoddi4.o)
 .data          0x00000000        0x0 c:/program files (x86)/cypress/psoc creator/4.4/psoc creator/import/gnu/arm/5.4.1/bin/../lib/gcc/arm-none-eabi/5.4.1/armv7-m\libgcc.a(_udivmoddi4.o)
 .bss           0x00000000        0x0 c:/program files (x86)/cypress/psoc creator/4.4/psoc creator/import/gnu/arm/5.4.1/bin/../lib/gcc/arm-none-eabi/5.4.1/armv7-m\libgcc.a(_udivmoddi4.o)
 .ARM.extab     0x00000000        0x0 c:/program files (x86)/cypress/psoc creator/4.4/psoc creator/import/gnu/arm/5.4.1/bin/../lib/gcc/arm-none-eabi/5.4.1/armv7-m\libgcc.a(_udivmoddi4.o)
 .ARM.exidx     0x00000000        0x8 c:/program files (x86)/cypress/psoc creator/4.4/psoc creator/import/gnu/arm/5.4.1/bin/../lib/gcc/arm-none-eabi/5.4.1/armv7-m\libgcc.a(_udivmoddi4.o)
 .text          0x00000000        0x4 c:/program files (x86)/cypress/psoc creator/4.4/psoc creator/import/gnu/arm/5.4.1/bin/../lib/gcc/arm-none-eabi/5.4.1/armv7-m\libgcc.a(_dvmd_tls.o)
 .data          0x00000000        0x0 c:/program files (x86)/cypress/psoc creator/4.4/psoc creator/import/gnu/arm/5.4.1/bin/../lib/gcc/arm-none-eabi/5.4.1/armv7-m\libgcc.a(_dvmd_tls.o)
 .bss           0x00000000        0x0 c:/program files (x86)/cypress/psoc creator/4.4/psoc creator/import/gnu/arm/5.4.1/bin/../lib/gcc/arm-none-eabi/5.4.1/armv7-m\libgcc.a(_dvmd_tls.o)
 .text          0x00000000        0x0 c:/program files (x86)/cypress/psoc creator/4.4/psoc creator/import/gnu/arm/5.4.1/bin/../lib/gcc/arm-none-eabi/5.4.1/../../../../arm-none-eabi/lib/armv7-m\libg_nano.a(lib_a-errno.o)
 .data          0x00000000        0x0 c:/program files (x86)/cypress/psoc creator/4.4/psoc creator/import/gnu/arm/5.4.1/bin/../lib/gcc/arm-none-eabi/5.4.1/../../../../arm-none-eabi/lib/armv7-m\libg_nano.a(lib_a-errno.o)
 .bss           0x00000000        0x0 c:/program files (x86)/cypress/psoc creator/4.4/psoc creator/import/gnu/arm/5.4.1/bin/../lib/gcc/arm-none-eabi/5.4.1/../../../../arm-none-eabi/lib/armv7-m\libg_nano.a(lib_a-errno.o)
 .text          0x00000000        0x0 c:/program files (x86)/cypress/psoc creator/4.4/psoc creator/import/gnu/arm/5.4.1/bin/../lib/gcc/arm-none-eabi/5.4.1/../../../../arm-none-eabi/lib/armv7-m\libg_nano.a(lib_a-exit.o)
 .data          0x00000000        0x0 c:/program files (x86)/cypress/psoc creator/4.4/psoc creator/import/gnu/arm/5.4.1/bin/../lib/gcc/arm-none-eabi/5.4.1/../../../../arm-none-eabi/lib/armv7-m\libg_nano.a(lib_a-exit.o)
 .bss           0x00000000        0x0 c:/program files (x86)/cypress/psoc creator/4.4/psoc creator/import/gnu/arm/5.4.1/bin/../lib/gcc/arm-none-eabi/5.4.1/../../../../arm-none-eabi/lib/armv7-m\libg_nano.a(lib_a-exit.o)
 .text.exit     0x00000000       0x28 c:/program files (x86)/cypress/psoc creator/4.4/psoc creator/import/gnu/arm/5.4.1/bin/../lib/gcc/arm-none-eabi/5.4.1/../../../../arm-none-eabi/lib/armv7-m\libg_nano.a(lib_a-exit.o)
 .text          0x00000000        0x0 c:/program files (x86)/cypress/psoc creator/4.4/psoc creator/import/gnu/arm/5.4.1/bin/../lib/gcc/arm-none-eabi/5.4.1/../../../../arm-none-eabi/lib/armv7-m\libg_nano.a(lib_a-impure.o)
 .data          0x00000000        0x0 c:/program files (x86)/cypress/psoc creator/4.4/psoc creator/import/gnu/arm/5.4.1/bin/../lib/gcc/arm-none-eabi/5.4.1/../../../../arm-none-eabi/lib/armv7-m\libg_nano.a(lib_a-impure.o)
 .bss           0x00000000        0x0 c:/program files (x86)/cypress/psoc creator/4.4/psoc creator/import/gnu/arm/5.4.1/bin/../lib/gcc/arm-none-eabi/5.4.1/../../../../arm-none-eabi/lib/armv7-m\libg_nano.a(lib_a-impure.o)
 .rodata._global_impure_ptr
                0x00000000        0x4 c:/program files (x86)/cypress/psoc creator/4.4/psoc creator/import/gnu/arm/5.4.1/bin/../lib/gcc/arm-none-eabi/5.4.1/../../../../arm-none-eabi/lib/armv7-m\libg_nano.a(lib_a-impure.o)
 .text          0x00000000        0x0 c:/program files (x86)/cypress/psoc creator/4.4/psoc creator/import/gnu/arm/5.4.1/bin/../lib/gcc/arm-none-eabi/5.4.1/../../../../arm-none-eabi/lib/armv7-m\libg_nano.a(lib_a-init.o)
 .data          0x00000000        0x0 c:/program files (x86)/cypress/psoc creator/4.4/psoc creator/import/gnu/arm/5.4.1/bin/../lib/gcc/arm-none-eabi/5.4.1/../../../../arm-none-eabi/lib/armv7-m\libg_nano.a(lib_a-init.o)
 .bss           0x00000000        0x0 c:/program files (x86)/cypress/psoc creator/4.4/psoc creator/import/gnu/arm/5.4.1/bin/../lib/gcc/arm-none-eabi/5.4.1/../../../../arm-none-eabi/lib/armv7-m\libg_nano.a(lib_a-init.o)
 .text          0x00000000        0x0 c:/program files (x86)/cypress/psoc creator/4.4/psoc creator/import/gnu/arm/5.4.1/bin/../lib/gcc/arm-none-eabi/5.4.1/../../../../arm-none-eabi/lib/armv7-m\libg_nano.a(lib_a-memcpy-stub.o)
 .data          0x00000000        0x0 c:/program files (x86)/cypress/psoc creator/4.4/psoc creator/import/gnu/arm/5.4.1/bin/../lib/gcc/arm-none-eabi/5.4.1/../../../../arm-none-eabi/lib/armv7-m\libg_nano.a(lib_a-memcpy-stub.o)
 .bss           0x00000000        0x0 c:/program files (x86)/cypress/psoc creator/4.4/psoc creator/import/gnu/arm/5.4.1/bin/../lib/gcc/arm-none-eabi/5.4.1/../../../../arm-none-eabi/lib/armv7-m\libg_nano.a(lib_a-memcpy-stub.o)
 .text          0x00000000        0x0 c:/program files (x86)/cypress/psoc creator/4.4/psoc creator/import/gnu/arm/5.4.1/bin/../lib/gcc/arm-none-eabi/5.4.1/../../../../arm-none-eabi/lib/armv7-m\libg_nano.a(lib_a-memset.o)
 .data          0x00000000        0x0 c:/program files (x86)/cypress/psoc creator/4.4/psoc creator/import/gnu/arm/5.4.1/bin/../lib/gcc/arm-none-eabi/5.4.1/../../../../arm-none-eabi/lib/armv7-m\libg_nano.a(lib_a-memset.o)
 .bss           0x00000000        0x0 c:/program files (x86)/cypress/psoc creator/4.4/psoc creator/import/gnu/arm/5.4.1/bin/../lib/gcc/arm-none-eabi/5.4.1/../../../../arm-none-eabi/lib/armv7-m\libg_nano.a(lib_a-memset.o)
 .text          0x00000000        0x0 c:/program files (x86)/cypress/psoc creator/4.4/psoc creator/import/gnu/arm/5.4.1/bin/../lib/gcc/arm-none-eabi/5.4.1/../../../../arm-none-eabi/lib/armv7-m\libg_nano.a(lib_a-sscanf.o)
 .data          0x00000000        0x0 c:/program files (x86)/cypress/psoc creator/4.4/psoc creator/import/gnu/arm/5.4.1/bin/../lib/gcc/arm-none-eabi/5.4.1/../../../../arm-none-eabi/lib/armv7-m\libg_nano.a(lib_a-sscanf.o)
 .bss           0x00000000        0x0 c:/program files (x86)/cypress/psoc creator/4.4/psoc creator/import/gnu/arm/5.4.1/bin/../lib/gcc/arm-none-eabi/5.4.1/../../../../arm-none-eabi/lib/armv7-m\libg_nano.a(lib_a-sscanf.o)
 .text._sscanf_r
                0x00000000       0x54 c:/program files (x86)/cypress/psoc creator/4.4/psoc creator/import/gnu/arm/5.4.1/bin/../lib/gcc/arm-none-eabi/5.4.1/../../../../arm-none-eabi/lib/armv7-m\libg_nano.a(lib_a-sscanf.o)
 .text          0x00000000        0x0 c:/program files (x86)/cypress/psoc creator/4.4/psoc creator/import/gnu/arm/5.4.1/bin/../lib/gcc/arm-none-eabi/5.4.1/../../../../arm-none-eabi/lib/armv7-m\libg_nano.a(lib_a-stdio.o)
 .data          0x00000000        0x0 c:/program files (x86)/cypress/psoc creator/4.4/psoc creator/import/gnu/arm/5.4.1/bin/../lib/gcc/arm-none-eabi/5.4.1/../../../../arm-none-eabi/lib/armv7-m\libg_nano.a(lib_a-stdio.o)
 .bss           0x00000000        0x0 c:/program files (x86)/cypress/psoc creator/4.4/psoc creator/import/gnu/arm/5.4.1/bin/../lib/gcc/arm-none-eabi/5.4.1/../../../../arm-none-eabi/lib/armv7-m\libg_nano.a(lib_a-stdio.o)
 .text.__sread  0x00000000       0x22 c:/program files (x86)/cypress/psoc creator/4.4/psoc creator/import/gnu/arm/5.4.1/bin/../lib/gcc/arm-none-eabi/5.4.1/../../../../arm-none-eabi/lib/armv7-m\libg_nano.a(lib_a-stdio.o)
 .text.__swrite
                0x00000000       0x38 c:/program files (x86)/cypress/psoc creator/4.4/psoc creator/import/gnu/arm/5.4.1/bin/../lib/gcc/arm-none-eabi/5.4.1/../../../../arm-none-eabi/lib/armv7-m\libg_nano.a(lib_a-stdio.o)
 .text.__sseek  0x00000000       0x24 c:/program files (x86)/cypress/psoc creator/4.4/psoc creator/import/gnu/arm/5.4.1/bin/../lib/gcc/arm-none-eabi/5.4.1/../../../../arm-none-eabi/lib/armv7-m\libg_nano.a(lib_a-stdio.o)
 .text.__sclose
                0x00000000        0x8 c:/program files (x86)/cypress/psoc creator/4.4/psoc creator/import/gnu/arm/5.4.1/bin/../lib/gcc/arm-none-eabi/5.4.1/../../../../arm-none-eabi/lib/armv7-m\libg_nano.a(lib_a-stdio.o)
 .data          0x00000000        0x0 c:/program files (x86)/cypress/psoc creator/4.4/psoc creator/import/gnu/arm/5.4.1/bin/../lib/gcc/arm-none-eabi/5.4.1/../../../../arm-none-eabi/lib/armv7-m\libg_nano.a(lib_a-strlen.o)
 .bss           0x00000000        0x0 c:/program files (x86)/cypress/psoc creator/4.4/psoc creator/import/gnu/arm/5.4.1/bin/../lib/gcc/arm-none-eabi/5.4.1/../../../../arm-none-eabi/lib/armv7-m\libg_nano.a(lib_a-strlen.o)
 .text          0x00000000        0x0 c:/program files (x86)/cypress/psoc creator/4.4/psoc creator/import/gnu/arm/5.4.1/bin/../lib/gcc/arm-none-eabi/5.4.1/../../../../arm-none-eabi/lib/armv7-m\libg_nano.a(lib_a-strtok.o)
 .data          0x00000000        0x0 c:/program files (x86)/cypress/psoc creator/4.4/psoc creator/import/gnu/arm/5.4.1/bin/../lib/gcc/arm-none-eabi/5.4.1/../../../../arm-none-eabi/lib/armv7-m\libg_nano.a(lib_a-strtok.o)
 .bss           0x00000000        0x0 c:/program files (x86)/cypress/psoc creator/4.4/psoc creator/import/gnu/arm/5.4.1/bin/../lib/gcc/arm-none-eabi/5.4.1/../../../../arm-none-eabi/lib/armv7-m\libg_nano.a(lib_a-strtok.o)
 .text          0x00000000        0x0 c:/program files (x86)/cypress/psoc creator/4.4/psoc creator/import/gnu/arm/5.4.1/bin/../lib/gcc/arm-none-eabi/5.4.1/../../../../arm-none-eabi/lib/armv7-m\libg_nano.a(lib_a-strtok_r.o)
 .data          0x00000000        0x0 c:/program files (x86)/cypress/psoc creator/4.4/psoc creator/import/gnu/arm/5.4.1/bin/../lib/gcc/arm-none-eabi/5.4.1/../../../../arm-none-eabi/lib/armv7-m\libg_nano.a(lib_a-strtok_r.o)
 .bss           0x00000000        0x0 c:/program files (x86)/cypress/psoc creator/4.4/psoc creator/import/gnu/arm/5.4.1/bin/../lib/gcc/arm-none-eabi/5.4.1/../../../../arm-none-eabi/lib/armv7-m\libg_nano.a(lib_a-strtok_r.o)
 .text.strtok_r
                0x00000000        0x6 c:/program files (x86)/cypress/psoc creator/4.4/psoc creator/import/gnu/arm/5.4.1/bin/../lib/gcc/arm-none-eabi/5.4.1/../../../../arm-none-eabi/lib/armv7-m\libg_nano.a(lib_a-strtok_r.o)
 .text          0x00000000        0x0 c:/program files (x86)/cypress/psoc creator/4.4/psoc creator/import/gnu/arm/5.4.1/bin/../lib/gcc/arm-none-eabi/5.4.1/../../../../arm-none-eabi/lib/armv7-m\libg_nano.a(lib_a-writer.o)
 .data          0x00000000        0x0 c:/program files (x86)/cypress/psoc creator/4.4/psoc creator/import/gnu/arm/5.4.1/bin/../lib/gcc/arm-none-eabi/5.4.1/../../../../arm-none-eabi/lib/armv7-m\libg_nano.a(lib_a-writer.o)
 .bss           0x00000000        0x0 c:/program files (x86)/cypress/psoc creator/4.4/psoc creator/import/gnu/arm/5.4.1/bin/../lib/gcc/arm-none-eabi/5.4.1/../../../../arm-none-eabi/lib/armv7-m\libg_nano.a(lib_a-writer.o)
 .text._write_r
                0x00000000       0x24 c:/program files (x86)/cypress/psoc creator/4.4/psoc creator/import/gnu/arm/5.4.1/bin/../lib/gcc/arm-none-eabi/5.4.1/../../../../arm-none-eabi/lib/armv7-m\libg_nano.a(lib_a-writer.o)
 .text          0x00000000        0x0 c:/program files (x86)/cypress/psoc creator/4.4/psoc creator/import/gnu/arm/5.4.1/bin/../lib/gcc/arm-none-eabi/5.4.1/../../../../arm-none-eabi/lib/armv7-m\libg_nano.a(lib_a-closer.o)
 .data          0x00000000        0x0 c:/program files (x86)/cypress/psoc creator/4.4/psoc creator/import/gnu/arm/5.4.1/bin/../lib/gcc/arm-none-eabi/5.4.1/../../../../arm-none-eabi/lib/armv7-m\libg_nano.a(lib_a-closer.o)
 .bss           0x00000000        0x0 c:/program files (x86)/cypress/psoc creator/4.4/psoc creator/import/gnu/arm/5.4.1/bin/../lib/gcc/arm-none-eabi/5.4.1/../../../../arm-none-eabi/lib/armv7-m\libg_nano.a(lib_a-closer.o)
 .text._close_r
                0x00000000       0x20 c:/program files (x86)/cypress/psoc creator/4.4/psoc creator/import/gnu/arm/5.4.1/bin/../lib/gcc/arm-none-eabi/5.4.1/../../../../arm-none-eabi/lib/armv7-m\libg_nano.a(lib_a-closer.o)
 .text          0x00000000        0x0 c:/program files (x86)/cypress/psoc creator/4.4/psoc creator/import/gnu/arm/5.4.1/bin/../lib/gcc/arm-none-eabi/5.4.1/../../../../arm-none-eabi/lib/armv7-m\libg_nano.a(lib_a-lseekr.o)
 .data          0x00000000        0x0 c:/program files (x86)/cypress/psoc creator/4.4/psoc creator/import/gnu/arm/5.4.1/bin/../lib/gcc/arm-none-eabi/5.4.1/../../../../arm-none-eabi/lib/armv7-m\libg_nano.a(lib_a-lseekr.o)
 .bss           0x00000000        0x0 c:/program files (x86)/cypress/psoc creator/4.4/psoc creator/import/gnu/arm/5.4.1/bin/../lib/gcc/arm-none-eabi/5.4.1/../../../../arm-none-eabi/lib/armv7-m\libg_nano.a(lib_a-lseekr.o)
 .text._lseek_r
                0x00000000       0x24 c:/program files (x86)/cypress/psoc creator/4.4/psoc creator/import/gnu/arm/5.4.1/bin/../lib/gcc/arm-none-eabi/5.4.1/../../../../arm-none-eabi/lib/armv7-m\libg_nano.a(lib_a-lseekr.o)
 .text          0x00000000        0x0 c:/program files (x86)/cypress/psoc creator/4.4/psoc creator/import/gnu/arm/5.4.1/bin/../lib/gcc/arm-none-eabi/5.4.1/../../../../arm-none-eabi/lib/armv7-m\libg_nano.a(lib_a-malloc.o)
 .data          0x00000000        0x0 c:/program files (x86)/cypress/psoc creator/4.4/psoc creator/import/gnu/arm/5.4.1/bin/../lib/gcc/arm-none-eabi/5.4.1/../../../../arm-none-eabi/lib/armv7-m\libg_nano.a(lib_a-malloc.o)
 .bss           0x00000000        0x0 c:/program files (x86)/cypress/psoc creator/4.4/psoc creator/import/gnu/arm/5.4.1/bin/../lib/gcc/arm-none-eabi/5.4.1/../../../../arm-none-eabi/lib/armv7-m\libg_nano.a(lib_a-malloc.o)
 .text.free     0x00000000       0x10 c:/program files (x86)/cypress/psoc creator/4.4/psoc creator/import/gnu/arm/5.4.1/bin/../lib/gcc/arm-none-eabi/5.4.1/../../../../arm-none-eabi/lib/armv7-m\libg_nano.a(lib_a-malloc.o)
 .text          0x00000000        0x0 c:/program files (x86)/cypress/psoc creator/4.4/psoc creator/import/gnu/arm/5.4.1/bin/../lib/gcc/arm-none-eabi/5.4.1/../../../../arm-none-eabi/lib/armv7-m\libg_nano.a(lib_a-nano-freer.o)
 .data          0x00000000        0x0 c:/program files (x86)/cypress/psoc creator/4.4/psoc creator/import/gnu/arm/5.4.1/bin/../lib/gcc/arm-none-eabi/5.4.1/../../../../arm-none-eabi/lib/armv7-m\libg_nano.a(lib_a-nano-freer.o)
 .bss           0x00000000        0x0 c:/program files (x86)/cypress/psoc creator/4.4/psoc creator/import/gnu/arm/5.4.1/bin/../lib/gcc/arm-none-eabi/5.4.1/../../../../arm-none-eabi/lib/armv7-m\libg_nano.a(lib_a-nano-freer.o)
 .text          0x00000000        0x0 c:/program files (x86)/cypress/psoc creator/4.4/psoc creator/import/gnu/arm/5.4.1/bin/../lib/gcc/arm-none-eabi/5.4.1/../../../../arm-none-eabi/lib/armv7-m\libg_nano.a(lib_a-nano-mallocr.o)
 .data          0x00000000        0x0 c:/program files (x86)/cypress/psoc creator/4.4/psoc creator/import/gnu/arm/5.4.1/bin/../lib/gcc/arm-none-eabi/5.4.1/../../../../arm-none-eabi/lib/armv7-m\libg_nano.a(lib_a-nano-mallocr.o)
 .bss           0x00000000        0x0 c:/program files (x86)/cypress/psoc creator/4.4/psoc creator/import/gnu/arm/5.4.1/bin/../lib/gcc/arm-none-eabi/5.4.1/../../../../arm-none-eabi/lib/armv7-m\libg_nano.a(lib_a-nano-mallocr.o)
 .text          0x00000000        0x0 c:/program files (x86)/cypress/psoc creator/4.4/psoc creator/import/gnu/arm/5.4.1/bin/../lib/gcc/arm-none-eabi/5.4.1/../../../../arm-none-eabi/lib/armv7-m\libg_nano.a(lib_a-nano-svfscanf.o)
 .data          0x00000000        0x0 c:/program files (x86)/cypress/psoc creator/4.4/psoc creator/import/gnu/arm/5.4.1/bin/../lib/gcc/arm-none-eabi/5.4.1/../../../../arm-none-eabi/lib/armv7-m\libg_nano.a(lib_a-nano-svfscanf.o)
 .bss           0x00000000        0x0 c:/program files (x86)/cypress/psoc creator/4.4/psoc creator/import/gnu/arm/5.4.1/bin/../lib/gcc/arm-none-eabi/5.4.1/../../../../arm-none-eabi/lib/armv7-m\libg_nano.a(lib_a-nano-svfscanf.o)
 .text          0x00000000        0x0 c:/program files (x86)/cypress/psoc creator/4.4/psoc creator/import/gnu/arm/5.4.1/bin/../lib/gcc/arm-none-eabi/5.4.1/../../../../arm-none-eabi/lib/armv7-m\libg_nano.a(lib_a-nano-vfscanf_i.o)
 .data          0x00000000        0x0 c:/program files (x86)/cypress/psoc creator/4.4/psoc creator/import/gnu/arm/5.4.1/bin/../lib/gcc/arm-none-eabi/5.4.1/../../../../arm-none-eabi/lib/armv7-m\libg_nano.a(lib_a-nano-vfscanf_i.o)
 .bss           0x00000000        0x0 c:/program files (x86)/cypress/psoc creator/4.4/psoc creator/import/gnu/arm/5.4.1/bin/../lib/gcc/arm-none-eabi/5.4.1/../../../../arm-none-eabi/lib/armv7-m\libg_nano.a(lib_a-nano-vfscanf_i.o)
 .text          0x00000000        0x0 c:/program files (x86)/cypress/psoc creator/4.4/psoc creator/import/gnu/arm/5.4.1/bin/../lib/gcc/arm-none-eabi/5.4.1/../../../../arm-none-eabi/lib/armv7-m\libg_nano.a(lib_a-readr.o)
 .data          0x00000000        0x0 c:/program files (x86)/cypress/psoc creator/4.4/psoc creator/import/gnu/arm/5.4.1/bin/../lib/gcc/arm-none-eabi/5.4.1/../../../../arm-none-eabi/lib/armv7-m\libg_nano.a(lib_a-readr.o)
 .bss           0x00000000        0x0 c:/program files (x86)/cypress/psoc creator/4.4/psoc creator/import/gnu/arm/5.4.1/bin/../lib/gcc/arm-none-eabi/5.4.1/../../../../arm-none-eabi/lib/armv7-m\libg_nano.a(lib_a-readr.o)
 .text._read_r  0x00000000       0x24 c:/program files (x86)/cypress/psoc creator/4.4/psoc creator/import/gnu/arm/5.4.1/bin/../lib/gcc/arm-none-eabi/5.4.1/../../../../arm-none-eabi/lib/armv7-m\libg_nano.a(lib_a-readr.o)
 .text          0x00000000        0x0 c:/program files (x86)/cypress/psoc creator/4.4/psoc creator/import/gnu/arm/5.4.1/bin/../lib/gcc/arm-none-eabi/5.4.1/../../../../arm-none-eabi/lib/armv7-m\libg_nano.a(lib_a-reent.o)
 .data          0x00000000        0x0 c:/program files (x86)/cypress/psoc creator/4.4/psoc creator/import/gnu/arm/5.4.1/bin/../lib/gcc/arm-none-eabi/5.4.1/../../../../arm-none-eabi/lib/armv7-m\libg_nano.a(lib_a-reent.o)
 .bss           0x00000000        0x0 c:/program files (x86)/cypress/psoc creator/4.4/psoc creator/import/gnu/arm/5.4.1/bin/../lib/gcc/arm-none-eabi/5.4.1/../../../../arm-none-eabi/lib/armv7-m\libg_nano.a(lib_a-reent.o)
 .text.cleanup_glue
                0x00000000       0x1a c:/program files (x86)/cypress/psoc creator/4.4/psoc creator/import/gnu/arm/5.4.1/bin/../lib/gcc/arm-none-eabi/5.4.1/../../../../arm-none-eabi/lib/armv7-m\libg_nano.a(lib_a-reent.o)
 .text._reclaim_reent
                0x00000000       0xb4 c:/program files (x86)/cypress/psoc creator/4.4/psoc creator/import/gnu/arm/5.4.1/bin/../lib/gcc/arm-none-eabi/5.4.1/../../../../arm-none-eabi/lib/armv7-m\libg_nano.a(lib_a-reent.o)
 .text          0x00000000        0x0 c:/program files (x86)/cypress/psoc creator/4.4/psoc creator/import/gnu/arm/5.4.1/bin/../lib/gcc/arm-none-eabi/5.4.1/../../../../arm-none-eabi/lib/armv7-m\libg_nano.a(lib_a-sbrkr.o)
 .data          0x00000000        0x0 c:/program files (x86)/cypress/psoc creator/4.4/psoc creator/import/gnu/arm/5.4.1/bin/../lib/gcc/arm-none-eabi/5.4.1/../../../../arm-none-eabi/lib/armv7-m\libg_nano.a(lib_a-sbrkr.o)
 .bss           0x00000000        0x0 c:/program files (x86)/cypress/psoc creator/4.4/psoc creator/import/gnu/arm/5.4.1/bin/../lib/gcc/arm-none-eabi/5.4.1/../../../../arm-none-eabi/lib/armv7-m\libg_nano.a(lib_a-sbrkr.o)
 .text          0x00000000        0x0 c:/program files (x86)/cypress/psoc creator/4.4/psoc creator/import/gnu/arm/5.4.1/bin/../lib/gcc/arm-none-eabi/5.4.1/../../../../arm-none-eabi/lib/armv7-m\libg_nano.a(lib_a-sccl.o)
 .data          0x00000000        0x0 c:/program files (x86)/cypress/psoc creator/4.4/psoc creator/import/gnu/arm/5.4.1/bin/../lib/gcc/arm-none-eabi/5.4.1/../../../../arm-none-eabi/lib/armv7-m\libg_nano.a(lib_a-sccl.o)
 .bss           0x00000000        0x0 c:/program files (x86)/cypress/psoc creator/4.4/psoc creator/import/gnu/arm/5.4.1/bin/../lib/gcc/arm-none-eabi/5.4.1/../../../../arm-none-eabi/lib/armv7-m\libg_nano.a(lib_a-sccl.o)
 .text          0x00000000        0x0 c:/program files (x86)/cypress/psoc creator/4.4/psoc creator/import/gnu/arm/5.4.1/bin/../lib/gcc/arm-none-eabi/5.4.1/../../../../arm-none-eabi/lib/armv7-m\libg_nano.a(lib_a-strtol.o)
 .data          0x00000000        0x0 c:/program files (x86)/cypress/psoc creator/4.4/psoc creator/import/gnu/arm/5.4.1/bin/../lib/gcc/arm-none-eabi/5.4.1/../../../../arm-none-eabi/lib/armv7-m\libg_nano.a(lib_a-strtol.o)
 .bss           0x00000000        0x0 c:/program files (x86)/cypress/psoc creator/4.4/psoc creator/import/gnu/arm/5.4.1/bin/../lib/gcc/arm-none-eabi/5.4.1/../../../../arm-none-eabi/lib/armv7-m\libg_nano.a(lib_a-strtol.o)
 .text.strtol   0x00000000       0x14 c:/program files (x86)/cypress/psoc creator/4.4/psoc creator/import/gnu/arm/5.4.1/bin/../lib/gcc/arm-none-eabi/5.4.1/../../../../arm-none-eabi/lib/armv7-m\libg_nano.a(lib_a-strtol.o)
 .text          0x00000000        0x0 c:/program files (x86)/cypress/psoc creator/4.4/psoc creator/import/gnu/arm/5.4.1/bin/../lib/gcc/arm-none-eabi/5.4.1/../../../../arm-none-eabi/lib/armv7-m\libg_nano.a(lib_a-strtoul.o)
 .data          0x00000000        0x0 c:/program files (x86)/cypress/psoc creator/4.4/psoc creator/import/gnu/arm/5.4.1/bin/../lib/gcc/arm-none-eabi/5.4.1/../../../../arm-none-eabi/lib/armv7-m\libg_nano.a(lib_a-strtoul.o)
 .bss           0x00000000        0x0 c:/program files (x86)/cypress/psoc creator/4.4/psoc creator/import/gnu/arm/5.4.1/bin/../lib/gcc/arm-none-eabi/5.4.1/../../../../arm-none-eabi/lib/armv7-m\libg_nano.a(lib_a-strtoul.o)
 .text.strtoul  0x00000000       0x14 c:/program files (x86)/cypress/psoc creator/4.4/psoc creator/import/gnu/arm/5.4.1/bin/../lib/gcc/arm-none-eabi/5.4.1/../../../../arm-none-eabi/lib/armv7-m\libg_nano.a(lib_a-strtoul.o)
 .text          0x00000000        0x0 c:/program files (x86)/cypress/psoc creator/4.4/psoc creator/import/gnu/arm/5.4.1/bin/../lib/gcc/arm-none-eabi/5.4.1/../../../../arm-none-eabi/lib/armv7-m\libg_nano.a(lib_a-ungetc.o)
 .data          0x00000000        0x0 c:/program files (x86)/cypress/psoc creator/4.4/psoc creator/import/gnu/arm/5.4.1/bin/../lib/gcc/arm-none-eabi/5.4.1/../../../../arm-none-eabi/lib/armv7-m\libg_nano.a(lib_a-ungetc.o)
 .bss           0x00000000        0x0 c:/program files (x86)/cypress/psoc creator/4.4/psoc creator/import/gnu/arm/5.4.1/bin/../lib/gcc/arm-none-eabi/5.4.1/../../../../arm-none-eabi/lib/armv7-m\libg_nano.a(lib_a-ungetc.o)
 .text._ungetc_r
                0x00000000       0xe4 c:/program files (x86)/cypress/psoc creator/4.4/psoc creator/import/gnu/arm/5.4.1/bin/../lib/gcc/arm-none-eabi/5.4.1/../../../../arm-none-eabi/lib/armv7-m\libg_nano.a(lib_a-ungetc.o)
 .text.ungetc   0x00000000       0x10 c:/program files (x86)/cypress/psoc creator/4.4/psoc creator/import/gnu/arm/5.4.1/bin/../lib/gcc/arm-none-eabi/5.4.1/../../../../arm-none-eabi/lib/armv7-m\libg_nano.a(lib_a-ungetc.o)
 .text          0x00000000        0x0 c:/program files (x86)/cypress/psoc creator/4.4/psoc creator/import/gnu/arm/5.4.1/bin/../lib/gcc/arm-none-eabi/5.4.1/../../../../arm-none-eabi/lib/armv7-m\libg_nano.a(lib_a-ctype_.o)
 .data          0x00000000        0x0 c:/program files (x86)/cypress/psoc creator/4.4/psoc creator/import/gnu/arm/5.4.1/bin/../lib/gcc/arm-none-eabi/5.4.1/../../../../arm-none-eabi/lib/armv7-m\libg_nano.a(lib_a-ctype_.o)
 .bss           0x00000000        0x0 c:/program files (x86)/cypress/psoc creator/4.4/psoc creator/import/gnu/arm/5.4.1/bin/../lib/gcc/arm-none-eabi/5.4.1/../../../../arm-none-eabi/lib/armv7-m\libg_nano.a(lib_a-ctype_.o)
 .text          0x00000000        0x0 c:/program files (x86)/cypress/psoc creator/4.4/psoc creator/import/gnu/arm/5.4.1/bin/../lib/gcc/arm-none-eabi/5.4.1/../../../../arm-none-eabi/lib/armv7-m\libg_nano.a(lib_a-fflush.o)
 .data          0x00000000        0x0 c:/program files (x86)/cypress/psoc creator/4.4/psoc creator/import/gnu/arm/5.4.1/bin/../lib/gcc/arm-none-eabi/5.4.1/../../../../arm-none-eabi/lib/armv7-m\libg_nano.a(lib_a-fflush.o)
 .bss           0x00000000        0x0 c:/program files (x86)/cypress/psoc creator/4.4/psoc creator/import/gnu/arm/5.4.1/bin/../lib/gcc/arm-none-eabi/5.4.1/../../../../arm-none-eabi/lib/armv7-m\libg_nano.a(lib_a-fflush.o)
 .text.__sflush_r
                0x00000000      0x10c c:/program files (x86)/cypress/psoc creator/4.4/psoc creator/import/gnu/arm/5.4.1/bin/../lib/gcc/arm-none-eabi/5.4.1/../../../../arm-none-eabi/lib/armv7-m\libg_nano.a(lib_a-fflush.o)
 .text._fflush_r
                0x00000000       0x54 c:/program files (x86)/cypress/psoc creator/4.4/psoc creator/import/gnu/arm/5.4.1/bin/../lib/gcc/arm-none-eabi/5.4.1/../../../../arm-none-eabi/lib/armv7-m\libg_nano.a(lib_a-fflush.o)
 .text.fflush   0x00000000       0x24 c:/program files (x86)/cypress/psoc creator/4.4/psoc creator/import/gnu/arm/5.4.1/bin/../lib/gcc/arm-none-eabi/5.4.1/../../../../arm-none-eabi/lib/armv7-m\libg_nano.a(lib_a-fflush.o)
 .text          0x00000000        0x0 c:/program files (x86)/cypress/psoc creator/4.4/psoc creator/import/gnu/arm/5.4.1/bin/../lib/gcc/arm-none-eabi/5.4.1/../../../../arm-none-eabi/lib/armv7-m\libg_nano.a(lib_a-findfp.o)
 .data          0x00000000        0x0 c:/program files (x86)/cypress/psoc creator/4.4/psoc creator/import/gnu/arm/5.4.1/bin/../lib/gcc/arm-none-eabi/5.4.1/../../../../arm-none-eabi/lib/armv7-m\libg_nano.a(lib_a-findfp.o)
 .bss           0x00000000        0x0 c:/program files (x86)/cypress/psoc creator/4.4/psoc creator/import/gnu/arm/5.4.1/bin/../lib/gcc/arm-none-eabi/5.4.1/../../../../arm-none-eabi/lib/armv7-m\libg_nano.a(lib_a-findfp.o)
 .text.__fp_unlock
                0x00000000        0x4 c:/program files (x86)/cypress/psoc creator/4.4/psoc creator/import/gnu/arm/5.4.1/bin/../lib/gcc/arm-none-eabi/5.4.1/../../../../arm-none-eabi/lib/armv7-m\libg_nano.a(lib_a-findfp.o)
 .text._cleanup_r
                0x00000000        0xc c:/program files (x86)/cypress/psoc creator/4.4/psoc creator/import/gnu/arm/5.4.1/bin/../lib/gcc/arm-none-eabi/5.4.1/../../../../arm-none-eabi/lib/armv7-m\libg_nano.a(lib_a-findfp.o)
 .text.std.isra.0
                0x00000000       0x48 c:/program files (x86)/cypress/psoc creator/4.4/psoc creator/import/gnu/arm/5.4.1/bin/../lib/gcc/arm-none-eabi/5.4.1/../../../../arm-none-eabi/lib/armv7-m\libg_nano.a(lib_a-findfp.o)
 .text.__fp_lock
                0x00000000        0x4 c:/program files (x86)/cypress/psoc creator/4.4/psoc creator/import/gnu/arm/5.4.1/bin/../lib/gcc/arm-none-eabi/5.4.1/../../../../arm-none-eabi/lib/armv7-m\libg_nano.a(lib_a-findfp.o)
 .text.__sfmoreglue
                0x00000000       0x2c c:/program files (x86)/cypress/psoc creator/4.4/psoc creator/import/gnu/arm/5.4.1/bin/../lib/gcc/arm-none-eabi/5.4.1/../../../../arm-none-eabi/lib/armv7-m\libg_nano.a(lib_a-findfp.o)
 .text._cleanup
                0x00000000        0xc c:/program files (x86)/cypress/psoc creator/4.4/psoc creator/import/gnu/arm/5.4.1/bin/../lib/gcc/arm-none-eabi/5.4.1/../../../../arm-none-eabi/lib/armv7-m\libg_nano.a(lib_a-findfp.o)
 .text.__sinit  0x00000000       0x60 c:/program files (x86)/cypress/psoc creator/4.4/psoc creator/import/gnu/arm/5.4.1/bin/../lib/gcc/arm-none-eabi/5.4.1/../../../../arm-none-eabi/lib/armv7-m\libg_nano.a(lib_a-findfp.o)
 .text.__sfp    0x00000000       0x78 c:/program files (x86)/cypress/psoc creator/4.4/psoc creator/import/gnu/arm/5.4.1/bin/../lib/gcc/arm-none-eabi/5.4.1/../../../../arm-none-eabi/lib/armv7-m\libg_nano.a(lib_a-findfp.o)
 .text.__sfp_lock_acquire
                0x00000000        0x2 c:/program files (x86)/cypress/psoc creator/4.4/psoc creator/import/gnu/arm/5.4.1/bin/../lib/gcc/arm-none-eabi/5.4.1/../../../../arm-none-eabi/lib/armv7-m\libg_nano.a(lib_a-findfp.o)
 .text.__sfp_lock_release
                0x00000000        0x2 c:/program files (x86)/cypress/psoc creator/4.4/psoc creator/import/gnu/arm/5.4.1/bin/../lib/gcc/arm-none-eabi/5.4.1/../../../../arm-none-eabi/lib/armv7-m\libg_nano.a(lib_a-findfp.o)
 .text.__sinit_lock_acquire
                0x00000000        0x2 c:/program files (x86)/cypress/psoc creator/4.4/psoc creator/import/gnu/arm/5.4.1/bin/../lib/gcc/arm-none-eabi/5.4.1/../../../../arm-none-eabi/lib/armv7-m\libg_nano.a(lib_a-findfp.o)
 .text.__sinit_lock_release
                0x00000000        0x2 c:/program files (x86)/cypress/psoc creator/4.4/psoc creator/import/gnu/arm/5.4.1/bin/../lib/gcc/arm-none-eabi/5.4.1/../../../../arm-none-eabi/lib/armv7-m\libg_nano.a(lib_a-findfp.o)
 .text.__fp_lock_all
                0x00000000       0x14 c:/program files (x86)/cypress/psoc creator/4.4/psoc creator/import/gnu/arm/5.4.1/bin/../lib/gcc/arm-none-eabi/5.4.1/../../../../arm-none-eabi/lib/armv7-m\libg_nano.a(lib_a-findfp.o)
 .text.__fp_unlock_all
                0x00000000       0x14 c:/program files (x86)/cypress/psoc creator/4.4/psoc creator/import/gnu/arm/5.4.1/bin/../lib/gcc/arm-none-eabi/5.4.1/../../../../arm-none-eabi/lib/armv7-m\libg_nano.a(lib_a-findfp.o)
 .text          0x00000000        0x0 c:/program files (x86)/cypress/psoc creator/4.4/psoc creator/import/gnu/arm/5.4.1/bin/../lib/gcc/arm-none-eabi/5.4.1/../../../../arm-none-eabi/lib/armv7-m\libg_nano.a(lib_a-fwalk.o)
 .data          0x00000000        0x0 c:/program files (x86)/cypress/psoc creator/4.4/psoc creator/import/gnu/arm/5.4.1/bin/../lib/gcc/arm-none-eabi/5.4.1/../../../../arm-none-eabi/lib/armv7-m\libg_nano.a(lib_a-fwalk.o)
 .bss           0x00000000        0x0 c:/program files (x86)/cypress/psoc creator/4.4/psoc creator/import/gnu/arm/5.4.1/bin/../lib/gcc/arm-none-eabi/5.4.1/../../../../arm-none-eabi/lib/armv7-m\libg_nano.a(lib_a-fwalk.o)
 .text._fwalk   0x00000000       0x38 c:/program files (x86)/cypress/psoc creator/4.4/psoc creator/import/gnu/arm/5.4.1/bin/../lib/gcc/arm-none-eabi/5.4.1/../../../../arm-none-eabi/lib/armv7-m\libg_nano.a(lib_a-fwalk.o)
 .text._fwalk_reent
                0x00000000       0x3c c:/program files (x86)/cypress/psoc creator/4.4/psoc creator/import/gnu/arm/5.4.1/bin/../lib/gcc/arm-none-eabi/5.4.1/../../../../arm-none-eabi/lib/armv7-m\libg_nano.a(lib_a-fwalk.o)
 .text          0x00000000        0x0 c:/program files (x86)/cypress/psoc creator/4.4/psoc creator/import/gnu/arm/5.4.1/bin/../lib/gcc/arm-none-eabi/5.4.1/../../../../arm-none-eabi/lib/armv7-m\libg_nano.a(lib_a-memchr-stub.o)
 .data          0x00000000        0x0 c:/program files (x86)/cypress/psoc creator/4.4/psoc creator/import/gnu/arm/5.4.1/bin/../lib/gcc/arm-none-eabi/5.4.1/../../../../arm-none-eabi/lib/armv7-m\libg_nano.a(lib_a-memchr-stub.o)
 .bss           0x00000000        0x0 c:/program files (x86)/cypress/psoc creator/4.4/psoc creator/import/gnu/arm/5.4.1/bin/../lib/gcc/arm-none-eabi/5.4.1/../../../../arm-none-eabi/lib/armv7-m\libg_nano.a(lib_a-memchr-stub.o)
 .text          0x00000000        0x0 c:/program files (x86)/cypress/psoc creator/4.4/psoc creator/import/gnu/arm/5.4.1/bin/../lib/gcc/arm-none-eabi/5.4.1/../../../../arm-none-eabi/lib/armv7-m\libg_nano.a(lib_a-mlock.o)
 .data          0x00000000        0x0 c:/program files (x86)/cypress/psoc creator/4.4/psoc creator/import/gnu/arm/5.4.1/bin/../lib/gcc/arm-none-eabi/5.4.1/../../../../arm-none-eabi/lib/armv7-m\libg_nano.a(lib_a-mlock.o)
 .bss           0x00000000        0x0 c:/program files (x86)/cypress/psoc creator/4.4/psoc creator/import/gnu/arm/5.4.1/bin/../lib/gcc/arm-none-eabi/5.4.1/../../../../arm-none-eabi/lib/armv7-m\libg_nano.a(lib_a-mlock.o)
 .text          0x00000000        0x0 c:/program files (x86)/cypress/psoc creator/4.4/psoc creator/import/gnu/arm/5.4.1/bin/../lib/gcc/arm-none-eabi/5.4.1/../../../../arm-none-eabi/lib/armv7-m\libg_nano.a(lib_a-nano-reallocr.o)
 .data          0x00000000        0x0 c:/program files (x86)/cypress/psoc creator/4.4/psoc creator/import/gnu/arm/5.4.1/bin/../lib/gcc/arm-none-eabi/5.4.1/../../../../arm-none-eabi/lib/armv7-m\libg_nano.a(lib_a-nano-reallocr.o)
 .bss           0x00000000        0x0 c:/program files (x86)/cypress/psoc creator/4.4/psoc creator/import/gnu/arm/5.4.1/bin/../lib/gcc/arm-none-eabi/5.4.1/../../../../arm-none-eabi/lib/armv7-m\libg_nano.a(lib_a-nano-reallocr.o)
 .text          0x00000000        0x0 c:/program files (x86)/cypress/psoc creator/4.4/psoc creator/import/gnu/arm/5.4.1/bin/../lib/gcc/arm-none-eabi/5.4.1/../../../../arm-none-eabi/lib/armv7-m\libg_nano.a(lib_a-nano-msizer.o)
 .data          0x00000000        0x0 c:/program files (x86)/cypress/psoc creator/4.4/psoc creator/import/gnu/arm/5.4.1/bin/../lib/gcc/arm-none-eabi/5.4.1/../../../../arm-none-eabi/lib/armv7-m\libg_nano.a(lib_a-nano-msizer.o)
 .bss           0x00000000        0x0 c:/program files (x86)/cypress/psoc creator/4.4/psoc creator/import/gnu/arm/5.4.1/bin/../lib/gcc/arm-none-eabi/5.4.1/../../../../arm-none-eabi/lib/armv7-m\libg_nano.a(lib_a-nano-msizer.o)
 .text          0x00000000        0x0 c:/program files (x86)/cypress/psoc creator/4.4/psoc creator/import/gnu/arm/5.4.1/bin/../lib/gcc/arm-none-eabi/5.4.1/armv7-m/crtend.o
 .data          0x00000000        0x0 c:/program files (x86)/cypress/psoc creator/4.4/psoc creator/import/gnu/arm/5.4.1/bin/../lib/gcc/arm-none-eabi/5.4.1/armv7-m/crtend.o
 .bss           0x00000000        0x0 c:/program files (x86)/cypress/psoc creator/4.4/psoc creator/import/gnu/arm/5.4.1/bin/../lib/gcc/arm-none-eabi/5.4.1/armv7-m/crtend.o
 .text          0x00000000        0x0 c:/program files (x86)/cypress/psoc creator/4.4/psoc creator/import/gnu/arm/5.4.1/bin/../lib/gcc/arm-none-eabi/5.4.1/armv7-m/crtn.o
 .data          0x00000000        0x0 c:/program files (x86)/cypress/psoc creator/4.4/psoc creator/import/gnu/arm/5.4.1/bin/../lib/gcc/arm-none-eabi/5.4.1/armv7-m/crtn.o
 .bss           0x00000000        0x0 c:/program files (x86)/cypress/psoc creator/4.4/psoc creator/import/gnu/arm/5.4.1/bin/../lib/gcc/arm-none-eabi/5.4.1/armv7-m/crtn.o
 .text          0x00000000        0x0 c:/program files (x86)/cypress/psoc creator/4.4/psoc creator/import/gnu/arm/5.4.1/bin/../lib/gcc/arm-none-eabi/5.4.1/../../../../arm-none-eabi/lib/armv7-m\libnosys.a(close.o)
 .data          0x00000000        0x0 c:/program files (x86)/cypress/psoc creator/4.4/psoc creator/import/gnu/arm/5.4.1/bin/../lib/gcc/arm-none-eabi/5.4.1/../../../../arm-none-eabi/lib/armv7-m\libnosys.a(close.o)
 .bss           0x00000000        0x0 c:/program files (x86)/cypress/psoc creator/4.4/psoc creator/import/gnu/arm/5.4.1/bin/../lib/gcc/arm-none-eabi/5.4.1/../../../../arm-none-eabi/lib/armv7-m\libnosys.a(close.o)
 .text._close   0x00000000       0x10 c:/program files (x86)/cypress/psoc creator/4.4/psoc creator/import/gnu/arm/5.4.1/bin/../lib/gcc/arm-none-eabi/5.4.1/../../../../arm-none-eabi/lib/armv7-m\libnosys.a(close.o)
 .text          0x00000000        0x0 c:/program files (x86)/cypress/psoc creator/4.4/psoc creator/import/gnu/arm/5.4.1/bin/../lib/gcc/arm-none-eabi/5.4.1/../../../../arm-none-eabi/lib/armv7-m\libnosys.a(lseek.o)
 .data          0x00000000        0x0 c:/program files (x86)/cypress/psoc creator/4.4/psoc creator/import/gnu/arm/5.4.1/bin/../lib/gcc/arm-none-eabi/5.4.1/../../../../arm-none-eabi/lib/armv7-m\libnosys.a(lseek.o)
 .bss           0x00000000        0x0 c:/program files (x86)/cypress/psoc creator/4.4/psoc creator/import/gnu/arm/5.4.1/bin/../lib/gcc/arm-none-eabi/5.4.1/../../../../arm-none-eabi/lib/armv7-m\libnosys.a(lseek.o)
 .text._lseek   0x00000000       0x10 c:/program files (x86)/cypress/psoc creator/4.4/psoc creator/import/gnu/arm/5.4.1/bin/../lib/gcc/arm-none-eabi/5.4.1/../../../../arm-none-eabi/lib/armv7-m\libnosys.a(lseek.o)
 .text          0x00000000        0x0 c:/program files (x86)/cypress/psoc creator/4.4/psoc creator/import/gnu/arm/5.4.1/bin/../lib/gcc/arm-none-eabi/5.4.1/../../../../arm-none-eabi/lib/armv7-m\libnosys.a(read.o)
 .data          0x00000000        0x0 c:/program files (x86)/cypress/psoc creator/4.4/psoc creator/import/gnu/arm/5.4.1/bin/../lib/gcc/arm-none-eabi/5.4.1/../../../../arm-none-eabi/lib/armv7-m\libnosys.a(read.o)
 .bss           0x00000000        0x0 c:/program files (x86)/cypress/psoc creator/4.4/psoc creator/import/gnu/arm/5.4.1/bin/../lib/gcc/arm-none-eabi/5.4.1/../../../../arm-none-eabi/lib/armv7-m\libnosys.a(read.o)
 .text._read    0x00000000       0x10 c:/program files (x86)/cypress/psoc creator/4.4/psoc creator/import/gnu/arm/5.4.1/bin/../lib/gcc/arm-none-eabi/5.4.1/../../../../arm-none-eabi/lib/armv7-m\libnosys.a(read.o)
 .text          0x00000000        0x0 c:/program files (x86)/cypress/psoc creator/4.4/psoc creator/import/gnu/arm/5.4.1/bin/../lib/gcc/arm-none-eabi/5.4.1/../../../../arm-none-eabi/lib/armv7-m\libnosys.a(write.o)
 .data          0x00000000        0x0 c:/program files (x86)/cypress/psoc creator/4.4/psoc creator/import/gnu/arm/5.4.1/bin/../lib/gcc/arm-none-eabi/5.4.1/../../../../arm-none-eabi/lib/armv7-m\libnosys.a(write.o)
 .bss           0x00000000        0x0 c:/program files (x86)/cypress/psoc creator/4.4/psoc creator/import/gnu/arm/5.4.1/bin/../lib/gcc/arm-none-eabi/5.4.1/../../../../arm-none-eabi/lib/armv7-m\libnosys.a(write.o)
 .text._write   0x00000000       0x10 c:/program files (x86)/cypress/psoc creator/4.4/psoc creator/import/gnu/arm/5.4.1/bin/../lib/gcc/arm-none-eabi/5.4.1/../../../../arm-none-eabi/lib/armv7-m\libnosys.a(write.o)

Memory Configuration

Name             Origin             Length             Attributes
rom              0x00000000         0x00040000         xr
ram              0x1fff8000         0x00010000         xrw
*default*        0x00000000         0xffffffff

Linker script and memory map

LOAD c:/program files (x86)/cypress/psoc creator/4.4/psoc creator/import/gnu/arm/5.4.1/bin/../lib/gcc/arm-none-eabi/5.4.1/armv7-m/crti.o
LOAD c:/program files (x86)/cypress/psoc creator/4.4/psoc creator/import/gnu/arm/5.4.1/bin/../lib/gcc/arm-none-eabi/5.4.1/armv7-m/crtbegin.o
LOAD c:/program files (x86)/cypress/psoc creator/4.4/psoc creator/import/gnu/arm/5.4.1/bin/../lib/gcc/arm-none-eabi/5.4.1/../../../../arm-none-eabi/lib/armv7-m/crt0.o
START GROUP
LOAD .\CortexM3\ARM_GCC_541\Debug\main.o
LOAD .\CortexM3\ARM_GCC_541\Debug\cyfitter_cfg.o
LOAD .\CortexM3\ARM_GCC_541\Debug\Cm3Start.o
LOAD .\CortexM3\ARM_GCC_541\Debug\cymetadata.o
LOAD .\CortexM3\ARM_GCC_541\Debug\Scope-CY8CKIT-59.a
LOAD C:\Program Files (x86)\Cypress\PSoC Creator\4.4\PSoC Creator\psoc\content\cycomponentlibrary\CyComponentLibrary.cylib\CortexM3\ARM_GCC_541\Debug\CyComponentLibrary.a
END GROUP
START GROUP
LOAD c:/program files (x86)/cypress/psoc creator/4.4/psoc creator/import/gnu/arm/5.4.1/bin/../lib/gcc/arm-none-eabi/5.4.1/armv7-m\libgcc.a
LOAD c:/program files (x86)/cypress/psoc creator/4.4/psoc creator/import/gnu/arm/5.4.1/bin/../lib/gcc/arm-none-eabi/5.4.1/../../../../arm-none-eabi/lib/armv7-m\libg_nano.a
LOAD c:/program files (x86)/cypress/psoc creator/4.4/psoc creator/import/gnu/arm/5.4.1/bin/../lib/gcc/arm-none-eabi/5.4.1/../../../../arm-none-eabi/lib/armv7-m\libc_nano.a
END GROUP
START GROUP
LOAD c:/program files (x86)/cypress/psoc creator/4.4/psoc creator/import/gnu/arm/5.4.1/bin/../lib/gcc/arm-none-eabi/5.4.1/armv7-m\libgcc.a
LOAD c:/program files (x86)/cypress/psoc creator/4.4/psoc creator/import/gnu/arm/5.4.1/bin/../lib/gcc/arm-none-eabi/5.4.1/../../../../arm-none-eabi/lib/armv7-m\libc_nano.a
END GROUP
LOAD c:/program files (x86)/cypress/psoc creator/4.4/psoc creator/import/gnu/arm/5.4.1/bin/../lib/gcc/arm-none-eabi/5.4.1/armv7-m/crtend.o
LOAD c:/program files (x86)/cypress/psoc creator/4.4/psoc creator/import/gnu/arm/5.4.1/bin/../lib/gcc/arm-none-eabi/5.4.1/armv7-m/crtn.o
START GROUP
LOAD c:/program files (x86)/cypress/psoc creator/4.4/psoc creator/import/gnu/arm/5.4.1/bin/../lib/gcc/arm-none-eabi/5.4.1/armv7-m\libgcc.a
LOAD c:/program files (x86)/cypress/psoc creator/4.4/psoc creator/import/gnu/arm/5.4.1/bin/../lib/gcc/arm-none-eabi/5.4.1/../../../../arm-none-eabi/lib/armv7-m\libc.a
LOAD c:/program files (x86)/cypress/psoc creator/4.4/psoc creator/import/gnu/arm/5.4.1/bin/../lib/gcc/arm-none-eabi/5.4.1/../../../../arm-none-eabi/lib/armv7-m\libnosys.a
END GROUP
                0x00000000                CY_APPL_ORIGIN = 0x0
                0x00000100                CY_FLASH_ROW_SIZE = 0x100
                0x00000020                CY_ECC_ROW_SIZE = 0x20
                0x00000000                CY_EE_IN_BTLDR = 0x0
                0x00000000                CY_APPL_LOADABLE = 0x0
                0x00000800                CY_EE_SIZE = 0x800
                0x00000001                CY_APPL_NUM = 0x1
                0x00000001                CY_APPL_MAX = 0x1
                0x00000040                CY_METADATA_SIZE = 0x40
                0x00000000                CY_APPL_LOADABLE = 0x0
                0x00000000                CY_CHECKSUM_EXCLUDE_SIZE = ALIGN (0x0, CY_FLASH_ROW_SIZE)
                [!provide]                PROVIDE (__cy_heap_start, _end)
                0x00000001                PROVIDE (__cy_region_num, ((__cy_regions_end - __cy_regions) / 0x10))
                0x20008000                PROVIDE (__cy_stack, (ORIGIN (ram) + LENGTH (ram)))
                [!provide]                PROVIDE (__cy_heap_end, (__cy_stack - 0x800))

.cybootloader   0x00000000        0x0
 *(.cybootloader)
                0x00000000                appl1_start = CY_APPL_ORIGIN?CY_APPL_ORIGIN:ALIGN (CY_FLASH_ROW_SIZE)
                0x0001ff00                appl2_start = (appl1_start + ALIGN ((((LENGTH (rom) - appl1_start) - (0x2 * CY_FLASH_ROW_SIZE)) / 0x2), CY_FLASH_ROW_SIZE))
                0x00000000                appl_start = (CY_APPL_NUM == 0x1)?appl1_start:appl2_start
                0x00000000                ecc_offset = ((appl_start / CY_FLASH_ROW_SIZE) * CY_ECC_ROW_SIZE)
                0x00000000                ee_offset = (CY_APPL_LOADABLE && ! (CY_EE_IN_BTLDR))?((CY_EE_SIZE / CY_APPL_MAX) * (CY_APPL_NUM - 0x1)):0x0
                0x00000800                ee_size = (CY_APPL_LOADABLE && ! (CY_EE_IN_BTLDR))?(CY_EE_SIZE / CY_APPL_MAX):CY_EE_SIZE
                [!provide]                PROVIDE (CY_ECC_OFFSET, ecc_offset)

.text           0x00000000     0x8b32
 CREATE_OBJECT_SYMBOLS
                0x00000000                PROVIDE (__cy_interrupt_vector, RomVectors)
 *(.romvectors)
 .romvectors    0x00000000       0x10 .\CortexM3\ARM_GCC_541\Debug\Cm3Start.o
                0x00000000                RomVectors
                0x00000001                ASSERT ((. != __cy_interrupt_vector), No interrupt vector)
                0x00000001                ASSERT (CY_APPL_ORIGIN?(SIZEOF (.cybootloader) <= CY_APPL_ORIGIN):0x1, Wrong image location)
                0x00000010                PROVIDE (__cy_reset, Reset)
 *(.text.Reset)
 .text.Reset    0x00000010       0x18 .\CortexM3\ARM_GCC_541\Debug\Cm3Start.o
                0x00000010                Reset
                0x00000001                ASSERT ((. != __cy_reset), No reset code)
 *(.dma_init)
                0x00000001                ASSERT ((((appl_start + .) <= 0x10000) || 0x1), DMA Init must be within the first 64k of flash)
 *(.text .text.* .gnu.linkonce.t.*)
 .text          0x00000028       0x5c c:/program files (x86)/cypress/psoc creator/4.4/psoc creator/import/gnu/arm/5.4.1/bin/../lib/gcc/arm-none-eabi/5.4.1/armv7-m/crtbegin.o
 *fill*         0x00000084        0x4 
 .text.main     0x00000088     0x1278 .\CortexM3\ARM_GCC_541\Debug\main.o
                0x00000088                main
 .text.Hardware_Config
                0x00001300      0x158 .\CortexM3\ARM_GCC_541\Debug\main.o
                0x00001300                Hardware_Config
 .text.DMA_Config
                0x00001458      0x130 .\CortexM3\ARM_GCC_541\Debug\main.o
                0x00001458                DMA_Config
 .text.GetLastSampleIndex
                0x00001588       0x60 .\CortexM3\ARM_GCC_541\Debug\main.o
                0x00001588                GetLastSampleIndex
 .text.CommandCheck
                0x000015e8      0x180 .\CortexM3\ARM_GCC_541\Debug\main.o
                0x000015e8                CommandCheck
 .text.PutString
                0x00001768       0x24 .\CortexM3\ARM_GCC_541\Debug\main.o
                0x00001768                PutString
 .text.PutChar  0x0000178c       0x28 .\CortexM3\ARM_GCC_541\Debug\main.o
                0x0000178c                PutChar
 .text.CYMEMZERO
                0x000017b4       0x1c .\CortexM3\ARM_GCC_541\Debug\cyfitter_cfg.o
 .text.CYCONFIGCPY
                0x000017d0       0x20 .\CortexM3\ARM_GCC_541\Debug\cyfitter_cfg.o
 .text.CyClockStartupError
                0x000017f0        0xc .\CortexM3\ARM_GCC_541\Debug\cyfitter_cfg.o
 .text.cfg_write_bytes32
                0x000017fc       0x74 .\CortexM3\ARM_GCC_541\Debug\cyfitter_cfg.o
 .text.ClockSetup
                0x00001870      0x168 .\CortexM3\ARM_GCC_541\Debug\cyfitter_cfg.o
 .text.AnalogSetDefault
                0x000019d8      0x180 .\CortexM3\ARM_GCC_541\Debug\cyfitter_cfg.o
 .text.AMux_1_Set
                0x00001b58       0x40 .\CortexM3\ARM_GCC_541\Debug\cyfitter_cfg.o
                0x00001b58                AMux_1_Set
 .text.AMux_1_Unset
                0x00001b98       0x44 .\CortexM3\ARM_GCC_541\Debug\cyfitter_cfg.o
                0x00001b98                AMux_1_Unset
 .text.AMux_2_Set
                0x00001bdc       0x6c .\CortexM3\ARM_GCC_541\Debug\cyfitter_cfg.o
                0x00001bdc                AMux_2_Set
 .text.AMux_2_Unset
                0x00001c48       0x74 .\CortexM3\ARM_GCC_541\Debug\cyfitter_cfg.o
                0x00001c48                AMux_2_Unset
 .text.Amux_Trigger_Set
                0x00001cbc       0x40 .\CortexM3\ARM_GCC_541\Debug\cyfitter_cfg.o
                0x00001cbc                Amux_Trigger_Set
 .text.Amux_Trigger_Unset
                0x00001cfc       0x44 .\CortexM3\ARM_GCC_541\Debug\cyfitter_cfg.o
                0x00001cfc                Amux_Trigger_Unset
 .text.cyfitter_cfg
                0x00001d40      0x1c0 .\CortexM3\ARM_GCC_541\Debug\cyfitter_cfg.o
                0x00001d40                cyfitter_cfg
 .text.IntDefaultHandler
                0x00001f00       0x14 .\CortexM3\ARM_GCC_541\Debug\Cm3Start.o
                0x00001f00                IntDefaultHandler
 .text._sbrk    0x00001f14       0x50 .\CortexM3\ARM_GCC_541\Debug\Cm3Start.o
                0x00001f14                _sbrk
 .text.Start_c  0x00001f64       0x98 .\CortexM3\ARM_GCC_541\Debug\Cm3Start.o
                0x00001f64                Start_c
 .text.initialize_psoc
                0x00001ffc       0x94 .\CortexM3\ARM_GCC_541\Debug\Cm3Start.o
                0x00001ffc                initialize_psoc
 .text.CyDmacConfigure
                0x00002090       0x5c .\CortexM3\ARM_GCC_541\Debug\Scope-CY8CKIT-59.a(CyDmac.o)
                0x00002090                CyDmacConfigure
 .text.CyDmaChEnable
                0x000020ec       0x8c .\CortexM3\ARM_GCC_541\Debug\Scope-CY8CKIT-59.a(CyDmac.o)
                0x000020ec                CyDmaChEnable
 .text.CyDmaChPriority
                0x00002178       0x64 .\CortexM3\ARM_GCC_541\Debug\Scope-CY8CKIT-59.a(CyDmac.o)
                0x00002178                CyDmaChPriority
 .text.CyDmaChSetExtendedAddress
                0x000021dc       0x78 .\CortexM3\ARM_GCC_541\Debug\Scope-CY8CKIT-59.a(CyDmac.o)
                0x000021dc                CyDmaChSetExtendedAddress
 .text.CyDmaChSetInitialTd
                0x00002254       0x3c .\CortexM3\ARM_GCC_541\Debug\Scope-CY8CKIT-59.a(CyDmac.o)
                0x00002254                CyDmaChSetInitialTd
 .text.CyDmaChSetRequest
                0x00002290       0x58 .\CortexM3\ARM_GCC_541\Debug\Scope-CY8CKIT-59.a(CyDmac.o)
                0x00002290                CyDmaChSetRequest
 .text.CyDmaChSetConfiguration
                0x000022e8       0xa0 .\CortexM3\ARM_GCC_541\Debug\Scope-CY8CKIT-59.a(CyDmac.o)
                0x000022e8                CyDmaChSetConfiguration
 .text.CyDmaTdAllocate
                0x00002388       0x5c .\CortexM3\ARM_GCC_541\Debug\Scope-CY8CKIT-59.a(CyDmac.o)
                0x00002388                CyDmaTdAllocate
 .text.CyDmaTdSetConfiguration
                0x000023e4       0x80 .\CortexM3\ARM_GCC_541\Debug\Scope-CY8CKIT-59.a(CyDmac.o)
                0x000023e4                CyDmaTdSetConfiguration
 .text.CyDmaTdSetAddress
                0x00002464       0x5c .\CortexM3\ARM_GCC_541\Debug\Scope-CY8CKIT-59.a(CyDmac.o)
                0x00002464                CyDmaTdSetAddress
 .text.CyDmaChRoundRobin
                0x000024c0       0x70 .\CortexM3\ARM_GCC_541\Debug\Scope-CY8CKIT-59.a(CyDmac.o)
                0x000024c0                CyDmaChRoundRobin
 .text.CyHalt   0x00002530       0x18 .\CortexM3\ARM_GCC_541\Debug\Scope-CY8CKIT-59.a(CyLib.o)
                0x00002530                CyHalt
 .text.CyDelayUs
                0x00002548       0x28 .\CortexM3\ARM_GCC_541\Debug\Scope-CY8CKIT-59.a(CyLib.o)
                0x00002548                CyDelayUs
 .text.CyIntSetVector
                0x00002570       0x50 .\CortexM3\ARM_GCC_541\Debug\Scope-CY8CKIT-59.a(CyLib.o)
                0x00002570                CyIntSetVector
 .text.CyIntSetPriority
                0x000025c0       0x48 .\CortexM3\ARM_GCC_541\Debug\Scope-CY8CKIT-59.a(CyLib.o)
                0x000025c0                CyIntSetPriority
 .text.CyGetUniqueId
                0x00002608       0xc4 .\CortexM3\ARM_GCC_541\Debug\Scope-CY8CKIT-59.a(CyLib.o)
                0x00002608                CyGetUniqueId
 .text.ADC_2_Start
                0x000026cc       0x24 .\CortexM3\ARM_GCC_541\Debug\Scope-CY8CKIT-59.a(ADC_2.o)
                0x000026cc                ADC_2_Start
 .text.ADC_2_Init
                0x000026f0       0x40 .\CortexM3\ARM_GCC_541\Debug\Scope-CY8CKIT-59.a(ADC_2.o)
                0x000026f0                ADC_2_Init
 .text.ADC_2_Enable
                0x00002730       0xcc .\CortexM3\ARM_GCC_541\Debug\Scope-CY8CKIT-59.a(ADC_2.o)
                0x00002730                ADC_2_Enable
 .text.ADC_2_SetResolution
                0x000027fc       0x54 .\CortexM3\ARM_GCC_541\Debug\Scope-CY8CKIT-59.a(ADC_2.o)
                0x000027fc                ADC_2_SetResolution
 .text.ADC_2_CalcGain
                0x00002850       0x80 .\CortexM3\ARM_GCC_541\Debug\Scope-CY8CKIT-59.a(ADC_2.o)
 .text.ADC_2_ISR
                0x000028d0        0xc .\CortexM3\ARM_GCC_541\Debug\Scope-CY8CKIT-59.a(ADC_2_INT.o)
                0x000028d0                ADC_2_ISR
 .text.ADC_1_Start
                0x000028dc       0x24 .\CortexM3\ARM_GCC_541\Debug\Scope-CY8CKIT-59.a(ADC_1.o)
                0x000028dc                ADC_1_Start
 .text.ADC_1_Init
                0x00002900       0x40 .\CortexM3\ARM_GCC_541\Debug\Scope-CY8CKIT-59.a(ADC_1.o)
                0x00002900                ADC_1_Init
 .text.ADC_1_Enable
                0x00002940       0xcc .\CortexM3\ARM_GCC_541\Debug\Scope-CY8CKIT-59.a(ADC_1.o)
                0x00002940                ADC_1_Enable
 .text.ADC_1_SetResolution
                0x00002a0c       0x54 .\CortexM3\ARM_GCC_541\Debug\Scope-CY8CKIT-59.a(ADC_1.o)
                0x00002a0c                ADC_1_SetResolution
 .text.ADC_1_CalcGain
                0x00002a60       0x80 .\CortexM3\ARM_GCC_541\Debug\Scope-CY8CKIT-59.a(ADC_1.o)
 .text.ADC_1_ISR
                0x00002ae0        0xc .\CortexM3\ARM_GCC_541\Debug\Scope-CY8CKIT-59.a(ADC_1_INT.o)
                0x00002ae0                ADC_1_ISR
 .text.USBUART_Start
                0x00002aec       0x3c .\CortexM3\ARM_GCC_541\Debug\Scope-CY8CKIT-59.a(USBUART.o)
                0x00002aec                USBUART_Start
 .text.USBUART_Init
                0x00002b28      0x1a4 .\CortexM3\ARM_GCC_541\Debug\Scope-CY8CKIT-59.a(USBUART.o)
                0x00002b28                USBUART_Init
 .text.USBUART_InitComponent
                0x00002ccc      0x100 .\CortexM3\ARM_GCC_541\Debug\Scope-CY8CKIT-59.a(USBUART.o)
                0x00002ccc                USBUART_InitComponent
 .text.USBUART_ReInitComponent
                0x00002dcc       0x68 .\CortexM3\ARM_GCC_541\Debug\Scope-CY8CKIT-59.a(USBUART.o)
                0x00002dcc                USBUART_ReInitComponent
 .text.USBUART_GetConfiguration
                0x00002e34       0x18 .\CortexM3\ARM_GCC_541\Debug\Scope-CY8CKIT-59.a(USBUART.o)
                0x00002e34                USBUART_GetConfiguration
 .text.USBUART_GetEPState
                0x00002e4c       0x2c .\CortexM3\ARM_GCC_541\Debug\Scope-CY8CKIT-59.a(USBUART.o)
                0x00002e4c                USBUART_GetEPState
 .text.USBUART_GetEPCount
                0x00002e78       0x60 .\CortexM3\ARM_GCC_541\Debug\Scope-CY8CKIT-59.a(USBUART.o)
                0x00002e78                USBUART_GetEPCount
 .text.USBUART_LoadInEP
                0x00002ed8      0x108 .\CortexM3\ARM_GCC_541\Debug\Scope-CY8CKIT-59.a(USBUART.o)
                0x00002ed8                USBUART_LoadInEP
 .text.USBUART_ReadOutEP
                0x00002fe0       0x8c .\CortexM3\ARM_GCC_541\Debug\Scope-CY8CKIT-59.a(USBUART.o)
                0x00002fe0                USBUART_ReadOutEP
 .text.USBUART_EnableOutEP
                0x0000306c       0x5c .\CortexM3\ARM_GCC_541\Debug\Scope-CY8CKIT-59.a(USBUART.o)
                0x0000306c                USBUART_EnableOutEP
 .text.USBUART_DispatchCDCClassRqst
                0x000030c8       0xe4 .\CortexM3\ARM_GCC_541\Debug\Scope-CY8CKIT-59.a(USBUART_cdc.o)
                0x000030c8                USBUART_DispatchCDCClassRqst
 .text.USBUART_GetInterfaceComPort
                0x000031ac       0x60 .\CortexM3\ARM_GCC_541\Debug\Scope-CY8CKIT-59.a(USBUART_cdc.o)
                0x000031ac                USBUART_GetInterfaceComPort
 .text.USBUART_CDC_Init
                0x0000320c       0xa8 .\CortexM3\ARM_GCC_541\Debug\Scope-CY8CKIT-59.a(USBUART_cdc.o)
                0x0000320c                USBUART_CDC_Init
 .text.USBUART_PutData
                0x000032b4       0x6c .\CortexM3\ARM_GCC_541\Debug\Scope-CY8CKIT-59.a(USBUART_cdc.o)
                0x000032b4                USBUART_PutData
 .text.USBUART_StrLen
                0x00003320       0x2c .\CortexM3\ARM_GCC_541\Debug\Scope-CY8CKIT-59.a(USBUART_cdc.o)
 .text.USBUART_PutString
                0x0000334c       0xdc .\CortexM3\ARM_GCC_541\Debug\Scope-CY8CKIT-59.a(USBUART_cdc.o)
                0x0000334c                USBUART_PutString
 .text.USBUART_PutChar
                0x00003428       0x38 .\CortexM3\ARM_GCC_541\Debug\Scope-CY8CKIT-59.a(USBUART_cdc.o)
                0x00003428                USBUART_PutChar
 .text.USBUART_GetCount
                0x00003460       0x54 .\CortexM3\ARM_GCC_541\Debug\Scope-CY8CKIT-59.a(USBUART_cdc.o)
                0x00003460                USBUART_GetCount
 .text.USBUART_DataIsReady
                0x000034b4       0x24 .\CortexM3\ARM_GCC_541\Debug\Scope-CY8CKIT-59.a(USBUART_cdc.o)
                0x000034b4                USBUART_DataIsReady
 .text.USBUART_CDCIsReady
                0x000034d8       0x24 .\CortexM3\ARM_GCC_541\Debug\Scope-CY8CKIT-59.a(USBUART_cdc.o)
                0x000034d8                USBUART_CDCIsReady
 .text.USBUART_GetAll
                0x000034fc       0x4c .\CortexM3\ARM_GCC_541\Debug\Scope-CY8CKIT-59.a(USBUART_cdc.o)
                0x000034fc                USBUART_GetAll
 .text.USBUART_IsLineChanged
                0x00003548       0x54 .\CortexM3\ARM_GCC_541\Debug\Scope-CY8CKIT-59.a(USBUART_cdc.o)
                0x00003548                USBUART_IsLineChanged
 .text.USBUART_Cdc_EpInit
                0x0000359c       0x90 .\CortexM3\ARM_GCC_541\Debug\Scope-CY8CKIT-59.a(USBUART_cdc.o)
                0x0000359c                USBUART_Cdc_EpInit
 .text.USBUART_EP_0_ISR
                0x0000362c       0xf8 .\CortexM3\ARM_GCC_541\Debug\Scope-CY8CKIT-59.a(USBUART_drv.o)
                0x0000362c                USBUART_EP_0_ISR
 .text.USBUART_HandleSetup
                0x00003724       0x88 .\CortexM3\ARM_GCC_541\Debug\Scope-CY8CKIT-59.a(USBUART_drv.o)
                0x00003724                USBUART_HandleSetup
 .text.USBUART_HandleIN
                0x000037ac       0x4c .\CortexM3\ARM_GCC_541\Debug\Scope-CY8CKIT-59.a(USBUART_drv.o)
                0x000037ac                USBUART_HandleIN
 .text.USBUART_HandleOUT
                0x000037f8       0x58 .\CortexM3\ARM_GCC_541\Debug\Scope-CY8CKIT-59.a(USBUART_drv.o)
                0x000037f8                USBUART_HandleOUT
 .text.USBUART_LoadEP0
                0x00003850       0xd0 .\CortexM3\ARM_GCC_541\Debug\Scope-CY8CKIT-59.a(USBUART_drv.o)
                0x00003850                USBUART_LoadEP0
 .text.USBUART_InitControlRead
                0x00003920       0x70 .\CortexM3\ARM_GCC_541\Debug\Scope-CY8CKIT-59.a(USBUART_drv.o)
                0x00003920                USBUART_InitControlRead
 .text.USBUART_InitZeroLengthControlTransfer
                0x00003990       0x40 .\CortexM3\ARM_GCC_541\Debug\Scope-CY8CKIT-59.a(USBUART_drv.o)
                0x00003990                USBUART_InitZeroLengthControlTransfer
 .text.USBUART_ControlReadDataStage
                0x000039d0        0xc .\CortexM3\ARM_GCC_541\Debug\Scope-CY8CKIT-59.a(USBUART_drv.o)
                0x000039d0                USBUART_ControlReadDataStage
 .text.USBUART_ControlReadStatusStage
                0x000039dc       0x40 .\CortexM3\ARM_GCC_541\Debug\Scope-CY8CKIT-59.a(USBUART_drv.o)
                0x000039dc                USBUART_ControlReadStatusStage
 .text.USBUART_InitControlWrite
                0x00003a1c       0x64 .\CortexM3\ARM_GCC_541\Debug\Scope-CY8CKIT-59.a(USBUART_drv.o)
                0x00003a1c                USBUART_InitControlWrite
 .text.USBUART_ControlWriteDataStage
                0x00003a80       0xb4 .\CortexM3\ARM_GCC_541\Debug\Scope-CY8CKIT-59.a(USBUART_drv.o)
                0x00003a80                USBUART_ControlWriteDataStage
 .text.USBUART_ControlWriteStatusStage
                0x00003b34       0x24 .\CortexM3\ARM_GCC_541\Debug\Scope-CY8CKIT-59.a(USBUART_drv.o)
                0x00003b34                USBUART_ControlWriteStatusStage
 .text.USBUART_InitNoDataControlTransfer
                0x00003b58       0x38 .\CortexM3\ARM_GCC_541\Debug\Scope-CY8CKIT-59.a(USBUART_drv.o)
                0x00003b58                USBUART_InitNoDataControlTransfer
 .text.USBUART_NoDataControlStatusStage
                0x00003b90       0x4c .\CortexM3\ARM_GCC_541\Debug\Scope-CY8CKIT-59.a(USBUART_drv.o)
                0x00003b90                USBUART_NoDataControlStatusStage
 .text.USBUART_UpdateStatusBlock
                0x00003bdc       0x40 .\CortexM3\ARM_GCC_541\Debug\Scope-CY8CKIT-59.a(USBUART_drv.o)
                0x00003bdc                USBUART_UpdateStatusBlock
 .text.USBUART_InitializeStatusBlock
                0x00003c1c       0x34 .\CortexM3\ARM_GCC_541\Debug\Scope-CY8CKIT-59.a(USBUART_drv.o)
                0x00003c1c                USBUART_InitializeStatusBlock
 .text.USBUART_EP_1_ISR
                0x00003c50       0x48 .\CortexM3\ARM_GCC_541\Debug\Scope-CY8CKIT-59.a(USBUART_episr.o)
                0x00003c50                USBUART_EP_1_ISR
 .text.USBUART_EP_2_ISR
                0x00003c98       0x4c .\CortexM3\ARM_GCC_541\Debug\Scope-CY8CKIT-59.a(USBUART_episr.o)
                0x00003c98                USBUART_EP_2_ISR
 .text.USBUART_EP_3_ISR
                0x00003ce4       0x54 .\CortexM3\ARM_GCC_541\Debug\Scope-CY8CKIT-59.a(USBUART_episr.o)
                0x00003ce4                USBUART_EP_3_ISR
 .text.USBUART_SOF_ISR
                0x00003d38        0xc .\CortexM3\ARM_GCC_541\Debug\Scope-CY8CKIT-59.a(USBUART_episr.o)
                0x00003d38                USBUART_SOF_ISR
 .text.USBUART_BUS_RESET_ISR
                0x00003d44        0xc .\CortexM3\ARM_GCC_541\Debug\Scope-CY8CKIT-59.a(USBUART_episr.o)
                0x00003d44                USBUART_BUS_RESET_ISR
 .text.USBUART_DP_ISR
                0x00003d50        0xc .\CortexM3\ARM_GCC_541\Debug\Scope-CY8CKIT-59.a(USBUART_pm.o)
                0x00003d50                USBUART_DP_ISR
 .text.USBUART_HandleStandardRqst
                0x00003d5c      0x4a4 .\CortexM3\ARM_GCC_541\Debug\Scope-CY8CKIT-59.a(USBUART_std.o)
                0x00003d5c                USBUART_HandleStandardRqst
 .text.USBUART_ReadDieID
                0x00004200       0xd8 .\CortexM3\ARM_GCC_541\Debug\Scope-CY8CKIT-59.a(USBUART_std.o)
                0x00004200                USBUART_ReadDieID
 .text.USBUART_ConfigReg
                0x000042d8      0x138 .\CortexM3\ARM_GCC_541\Debug\Scope-CY8CKIT-59.a(USBUART_std.o)
                0x000042d8                USBUART_ConfigReg
 .text.USBUART_Config
                0x00004410      0x3a4 .\CortexM3\ARM_GCC_541\Debug\Scope-CY8CKIT-59.a(USBUART_std.o)
                0x00004410                USBUART_Config
 .text.USBUART_ConfigAltChanged
                0x000047b4      0x25c .\CortexM3\ARM_GCC_541\Debug\Scope-CY8CKIT-59.a(USBUART_std.o)
                0x000047b4                USBUART_ConfigAltChanged
 .text.USBUART_GetConfigTablePtr
                0x00004a10       0x50 .\CortexM3\ARM_GCC_541\Debug\Scope-CY8CKIT-59.a(USBUART_std.o)
                0x00004a10                USBUART_GetConfigTablePtr
 .text.USBUART_GetDeviceTablePtr
                0x00004a60       0x24 .\CortexM3\ARM_GCC_541\Debug\Scope-CY8CKIT-59.a(USBUART_std.o)
                0x00004a60                USBUART_GetDeviceTablePtr
 .text.USBUART_GetInterfaceClassTablePtr
                0x00004a84       0x4c .\CortexM3\ARM_GCC_541\Debug\Scope-CY8CKIT-59.a(USBUART_std.o)
                0x00004a84                USBUART_GetInterfaceClassTablePtr
 .text.USBUART_SetEndpointHalt
                0x00004ad0       0xe8 .\CortexM3\ARM_GCC_541\Debug\Scope-CY8CKIT-59.a(USBUART_std.o)
                0x00004ad0                USBUART_SetEndpointHalt
 .text.USBUART_ClearEndpointHalt
                0x00004bb8      0x158 .\CortexM3\ARM_GCC_541\Debug\Scope-CY8CKIT-59.a(USBUART_std.o)
                0x00004bb8                USBUART_ClearEndpointHalt
 .text.USBUART_ValidateAlternateSetting
                0x00004d10       0x70 .\CortexM3\ARM_GCC_541\Debug\Scope-CY8CKIT-59.a(USBUART_std.o)
                0x00004d10                USBUART_ValidateAlternateSetting
 .text.USBUART_HandleVendorRqst
                0x00004d80       0x54 .\CortexM3\ARM_GCC_541\Debug\Scope-CY8CKIT-59.a(USBUART_vnd.o)
                0x00004d80                USBUART_HandleVendorRqst
 .text.SampleClock_SetDividerRegister
                0x00004dd4      0x164 .\CortexM3\ARM_GCC_541\Debug\Scope-CY8CKIT-59.a(SampleClock.o)
                0x00004dd4                SampleClock_SetDividerRegister
 .text.SampleClock_GetDividerRegister
                0x00004f38       0x18 .\CortexM3\ARM_GCC_541\Debug\Scope-CY8CKIT-59.a(SampleClock.o)
                0x00004f38                SampleClock_GetDividerRegister
 .text.SampleClock_GetSourceRegister
                0x00004f50       0x1c .\CortexM3\ARM_GCC_541\Debug\Scope-CY8CKIT-59.a(SampleClock.o)
                0x00004f50                SampleClock_GetSourceRegister
 .text.Vtrigger_Init
                0x00004f6c       0x28 .\CortexM3\ARM_GCC_541\Debug\Scope-CY8CKIT-59.a(Vtrigger.o)
                0x00004f6c                Vtrigger_Init
 .text.Vtrigger_Enable
                0x00004f94       0x34 .\CortexM3\ARM_GCC_541\Debug\Scope-CY8CKIT-59.a(Vtrigger.o)
                0x00004f94                Vtrigger_Enable
 .text.Vtrigger_Start
                0x00004fc8       0x28 .\CortexM3\ARM_GCC_541\Debug\Scope-CY8CKIT-59.a(Vtrigger.o)
                0x00004fc8                Vtrigger_Start
 .text.Vtrigger_SetSpeed
                0x00004ff0       0x40 .\CortexM3\ARM_GCC_541\Debug\Scope-CY8CKIT-59.a(Vtrigger.o)
                0x00004ff0                Vtrigger_SetSpeed
 .text.Vtrigger_SetRange
                0x00005030       0x40 .\CortexM3\ARM_GCC_541\Debug\Scope-CY8CKIT-59.a(Vtrigger.o)
                0x00005030                Vtrigger_SetRange
 .text.Vtrigger_SetValue
                0x00005070       0x20 .\CortexM3\ARM_GCC_541\Debug\Scope-CY8CKIT-59.a(Vtrigger.o)
                0x00005070                Vtrigger_SetValue
 .text.Vtrigger_DacTrim
                0x00005090       0x3c .\CortexM3\ARM_GCC_541\Debug\Scope-CY8CKIT-59.a(Vtrigger.o)
                0x00005090                Vtrigger_DacTrim
 .text.Amux_Trigger_FastSelect
                0x000050cc       0x38 .\CortexM3\ARM_GCC_541\Debug\Scope-CY8CKIT-59.a(Amux_Trigger.o)
                0x000050cc                Amux_Trigger_FastSelect
 .text.DMA_Channel_1_DmaInitialize
                0x00005104       0x64 .\CortexM3\ARM_GCC_541\Debug\Scope-CY8CKIT-59.a(DMA_Channel_1_dma.o)
                0x00005104                DMA_Channel_1_DmaInitialize
 .text.DMA_Channel_2_DmaInitialize
                0x00005168       0x64 .\CortexM3\ARM_GCC_541\Debug\Scope-CY8CKIT-59.a(DMA_Channel_2_dma.o)
                0x00005168                DMA_Channel_2_DmaInitialize
 .text.PWM_Sample_Buffer_Start
                0x000051cc       0x24 .\CortexM3\ARM_GCC_541\Debug\Scope-CY8CKIT-59.a(PWM_Sample_Buffer.o)
                0x000051cc                PWM_Sample_Buffer_Start
 .text.PWM_Sample_Buffer_Init
                0x000051f0       0x94 .\CortexM3\ARM_GCC_541\Debug\Scope-CY8CKIT-59.a(PWM_Sample_Buffer.o)
                0x000051f0                PWM_Sample_Buffer_Init
 .text.PWM_Sample_Buffer_Enable
                0x00005284       0x20 .\CortexM3\ARM_GCC_541\Debug\Scope-CY8CKIT-59.a(PWM_Sample_Buffer.o)
                0x00005284                PWM_Sample_Buffer_Enable
 .text.PWM_Sample_Buffer_WriteCounter
                0x000052a4       0x20 .\CortexM3\ARM_GCC_541\Debug\Scope-CY8CKIT-59.a(PWM_Sample_Buffer.o)
                0x000052a4                PWM_Sample_Buffer_WriteCounter
 .text.PWM_Sample_Buffer_ClearFIFO
                0x000052c4       0x1c .\CortexM3\ARM_GCC_541\Debug\Scope-CY8CKIT-59.a(PWM_Sample_Buffer.o)
                0x000052c4                PWM_Sample_Buffer_ClearFIFO
 .text.PWM_Sample_Buffer_WritePeriod
                0x000052e0       0x20 .\CortexM3\ARM_GCC_541\Debug\Scope-CY8CKIT-59.a(PWM_Sample_Buffer.o)
                0x000052e0                PWM_Sample_Buffer_WritePeriod
 .text.PWM_Sample_Buffer_WriteCompare
                0x00005300       0x20 .\CortexM3\ARM_GCC_541\Debug\Scope-CY8CKIT-59.a(PWM_Sample_Buffer.o)
                0x00005300                PWM_Sample_Buffer_WriteCompare
 .text.PWM_Sample_Buffer_SetInterruptMode
                0x00005320       0x20 .\CortexM3\ARM_GCC_541\Debug\Scope-CY8CKIT-59.a(PWM_Sample_Buffer.o)
                0x00005320                PWM_Sample_Buffer_SetInterruptMode
 .text.PWM_Sample_Buffer_ReadStatusRegister
                0x00005340       0x18 .\CortexM3\ARM_GCC_541\Debug\Scope-CY8CKIT-59.a(PWM_Sample_Buffer.o)
                0x00005340                PWM_Sample_Buffer_ReadStatusRegister
 .text.PWM_Sample_Buffer_ReadCapture
                0x00005358       0x18 .\CortexM3\ARM_GCC_541\Debug\Scope-CY8CKIT-59.a(PWM_Sample_Buffer.o)
                0x00005358                PWM_Sample_Buffer_ReadCapture
 .text.USBUART_Dp_ClearInterrupt
                0x00005370       0x20 .\CortexM3\ARM_GCC_541\Debug\Scope-CY8CKIT-59.a(USBUART_Dp.o)
                0x00005370                USBUART_Dp_ClearInterrupt
 .text.Trigger_Control_Write
                0x00005390       0x20 .\CortexM3\ARM_GCC_541\Debug\Scope-CY8CKIT-59.a(Trigger_Control.o)
                0x00005390                Trigger_Control_Write
 .text.Trigger_Control_Read
                0x000053b0       0x18 .\CortexM3\ARM_GCC_541\Debug\Scope-CY8CKIT-59.a(Trigger_Control.o)
                0x000053b0                Trigger_Control_Read
 .text.Trigger_Status_Read
                0x000053c8       0x18 .\CortexM3\ARM_GCC_541\Debug\Scope-CY8CKIT-59.a(Trigger_Status.o)
                0x000053c8                Trigger_Status_Read
 .text.Trigger_Comp_Init
                0x000053e0       0x68 .\CortexM3\ARM_GCC_541\Debug\Scope-CY8CKIT-59.a(Trigger_Comp.o)
                0x000053e0                Trigger_Comp_Init
 .text.Trigger_Comp_Enable
                0x00005448       0x34 .\CortexM3\ARM_GCC_541\Debug\Scope-CY8CKIT-59.a(Trigger_Comp.o)
                0x00005448                Trigger_Comp_Enable
 .text.Trigger_Comp_Start
                0x0000547c       0x24 .\CortexM3\ARM_GCC_541\Debug\Scope-CY8CKIT-59.a(Trigger_Comp.o)
                0x0000547c                Trigger_Comp_Start
 .text.Trigger_Comp_SetSpeed
                0x000054a0       0x84 .\CortexM3\ARM_GCC_541\Debug\Scope-CY8CKIT-59.a(Trigger_Comp.o)
                0x000054a0                Trigger_Comp_SetSpeed
 .text.PRS_Init
                0x00005524       0x24 .\CortexM3\ARM_GCC_541\Debug\Scope-CY8CKIT-59.a(PRS.o)
                0x00005524                PRS_Init
 .text.PRS_Enable
                0x00005548       0x20 .\CortexM3\ARM_GCC_541\Debug\Scope-CY8CKIT-59.a(PRS.o)
                0x00005548                PRS_Enable
 .text.PRS_Start
                0x00005568       0x24 .\CortexM3\ARM_GCC_541\Debug\Scope-CY8CKIT-59.a(PRS.o)
                0x00005568                PRS_Start
 .text.PRS_ResetSeedInit
                0x0000558c       0x54 .\CortexM3\ARM_GCC_541\Debug\Scope-CY8CKIT-59.a(PRS.o)
                0x0000558c                PRS_ResetSeedInit
 .text.PRS_WriteSeed
                0x000055e0       0x20 .\CortexM3\ARM_GCC_541\Debug\Scope-CY8CKIT-59.a(PRS.o)
                0x000055e0                PRS_WriteSeed
 .text.PRS_WritePolynomial
                0x00005600       0x20 .\CortexM3\ARM_GCC_541\Debug\Scope-CY8CKIT-59.a(PRS.o)
                0x00005600                PRS_WritePolynomial
 .text.Wave_Control_Write
                0x00005620       0x20 .\CortexM3\ARM_GCC_541\Debug\Scope-CY8CKIT-59.a(Wave_Control.o)
                0x00005620                Wave_Control_Write
 .text.Wave_Control_Read
                0x00005640       0x18 .\CortexM3\ARM_GCC_541\Debug\Scope-CY8CKIT-59.a(Wave_Control.o)
                0x00005640                Wave_Control_Read
 .text.Digital_Out_Control_Write
                0x00005658       0x20 .\CortexM3\ARM_GCC_541\Debug\Scope-CY8CKIT-59.a(Digital_Out_Control.o)
                0x00005658                Digital_Out_Control_Write
 .text.Digital_Input_Status_Read
                0x00005678       0x18 .\CortexM3\ARM_GCC_541\Debug\Scope-CY8CKIT-59.a(Digital_Input_Status.o)
                0x00005678                Digital_Input_Status_Read
 .text.PWM_Clock_SetDividerRegister
                0x00005690      0x164 .\CortexM3\ARM_GCC_541\Debug\Scope-CY8CKIT-59.a(PWM_Clock.o)
                0x00005690                PWM_Clock_SetDividerRegister
 .text.PWM_Clock_GetDividerRegister
                0x000057f4       0x18 .\CortexM3\ARM_GCC_541\Debug\Scope-CY8CKIT-59.a(PWM_Clock.o)
                0x000057f4                PWM_Clock_GetDividerRegister
 .text.PWM_Clock_GetSourceRegister
                0x0000580c       0x1c .\CortexM3\ARM_GCC_541\Debug\Scope-CY8CKIT-59.a(PWM_Clock.o)
                0x0000580c                PWM_Clock_GetSourceRegister
 .text.Digital_PWM_Start
                0x00005828       0x24 .\CortexM3\ARM_GCC_541\Debug\Scope-CY8CKIT-59.a(Digital_PWM.o)
                0x00005828                Digital_PWM_Start
 .text.Digital_PWM_Init
                0x0000584c       0x80 .\CortexM3\ARM_GCC_541\Debug\Scope-CY8CKIT-59.a(Digital_PWM.o)
                0x0000584c                Digital_PWM_Init
 .text.Digital_PWM_Enable
                0x000058cc       0x20 .\CortexM3\ARM_GCC_541\Debug\Scope-CY8CKIT-59.a(Digital_PWM.o)
                0x000058cc                Digital_PWM_Enable
 .text.Digital_PWM_WriteCounter
                0x000058ec       0x20 .\CortexM3\ARM_GCC_541\Debug\Scope-CY8CKIT-59.a(Digital_PWM.o)
                0x000058ec                Digital_PWM_WriteCounter
 .text.Digital_PWM_ClearFIFO
                0x0000590c       0x1c .\CortexM3\ARM_GCC_541\Debug\Scope-CY8CKIT-59.a(Digital_PWM.o)
                0x0000590c                Digital_PWM_ClearFIFO
 .text.Digital_PWM_WritePeriod
                0x00005928       0x20 .\CortexM3\ARM_GCC_541\Debug\Scope-CY8CKIT-59.a(Digital_PWM.o)
                0x00005928                Digital_PWM_WritePeriod
 .text.Digital_PWM_WriteCompare1
                0x00005948       0x20 .\CortexM3\ARM_GCC_541\Debug\Scope-CY8CKIT-59.a(Digital_PWM.o)
                0x00005948                Digital_PWM_WriteCompare1
 .text.Digital_PWM_WriteCompare2
                0x00005968       0x20 .\CortexM3\ARM_GCC_541\Debug\Scope-CY8CKIT-59.a(Digital_PWM.o)
                0x00005968                Digital_PWM_WriteCompare2
 .text.Digital_PWM_SetInterruptMode
                0x00005988       0x20 .\CortexM3\ARM_GCC_541\Debug\Scope-CY8CKIT-59.a(Digital_PWM.o)
                0x00005988                Digital_PWM_SetInterruptMode
 .text.Digital_PWM_ReadStatusRegister
                0x000059a8       0x18 .\CortexM3\ARM_GCC_541\Debug\Scope-CY8CKIT-59.a(Digital_PWM.o)
                0x000059a8                Digital_PWM_ReadStatusRegister
 .text.Digital_PWM_ReadCapture
                0x000059c0       0x18 .\CortexM3\ARM_GCC_541\Debug\Scope-CY8CKIT-59.a(Digital_PWM.o)
                0x000059c0                Digital_PWM_ReadCapture
 .text.ScopeA_Buf_Init
                0x000059d8       0x3c .\CortexM3\ARM_GCC_541\Debug\Scope-CY8CKIT-59.a(ScopeA_Buf.o)
                0x000059d8                ScopeA_Buf_Init
 .text.ScopeA_Buf_Enable
                0x00005a14       0x48 .\CortexM3\ARM_GCC_541\Debug\Scope-CY8CKIT-59.a(ScopeA_Buf.o)
                0x00005a14                ScopeA_Buf_Enable
 .text.ScopeA_Buf_Start
                0x00005a5c       0x24 .\CortexM3\ARM_GCC_541\Debug\Scope-CY8CKIT-59.a(ScopeA_Buf.o)
                0x00005a5c                ScopeA_Buf_Start
 .text.ScopeA_Buf_SetPower
                0x00005a80       0x38 .\CortexM3\ARM_GCC_541\Debug\Scope-CY8CKIT-59.a(ScopeA_Buf.o)
                0x00005a80                ScopeA_Buf_SetPower
 .text.ScopeA_Buf_SetGain
                0x00005ab8       0xbc .\CortexM3\ARM_GCC_541\Debug\Scope-CY8CKIT-59.a(ScopeA_Buf.o)
                0x00005ab8                ScopeA_Buf_SetGain
 .text.ScopeB_Buf_Init
                0x00005b74       0x3c .\CortexM3\ARM_GCC_541\Debug\Scope-CY8CKIT-59.a(ScopeB_Buf.o)
                0x00005b74                ScopeB_Buf_Init
 .text.ScopeB_Buf_Enable
                0x00005bb0       0x48 .\CortexM3\ARM_GCC_541\Debug\Scope-CY8CKIT-59.a(ScopeB_Buf.o)
                0x00005bb0                ScopeB_Buf_Enable
 .text.ScopeB_Buf_Start
                0x00005bf8       0x24 .\CortexM3\ARM_GCC_541\Debug\Scope-CY8CKIT-59.a(ScopeB_Buf.o)
                0x00005bf8                ScopeB_Buf_Start
 .text.ScopeB_Buf_SetPower
                0x00005c1c       0x38 .\CortexM3\ARM_GCC_541\Debug\Scope-CY8CKIT-59.a(ScopeB_Buf.o)
                0x00005c1c                ScopeB_Buf_SetPower
 .text.ScopeB_Buf_SetGain
                0x00005c54       0xbc .\CortexM3\ARM_GCC_541\Debug\Scope-CY8CKIT-59.a(ScopeB_Buf.o)
                0x00005c54                ScopeB_Buf_SetGain
 .text.WaveB_DAC_Init
                0x00005d10       0x54 .\CortexM3\ARM_GCC_541\Debug\Scope-CY8CKIT-59.a(WaveB_DAC.o)
                0x00005d10                WaveB_DAC_Init
 .text.WaveB_DAC_Enable
                0x00005d64       0x34 .\CortexM3\ARM_GCC_541\Debug\Scope-CY8CKIT-59.a(WaveB_DAC.o)
                0x00005d64                WaveB_DAC_Enable
 .text.WaveB_DAC_Start
                0x00005d98       0x24 .\CortexM3\ARM_GCC_541\Debug\Scope-CY8CKIT-59.a(WaveB_DAC.o)
                0x00005d98                WaveB_DAC_Start
 .text.WaveB_DAC_Wave1Setup
                0x00005dbc       0x68 .\CortexM3\ARM_GCC_541\Debug\Scope-CY8CKIT-59.a(WaveB_DAC.o)
                0x00005dbc                WaveB_DAC_Wave1Setup
 .text.WaveB_DAC_Wave2Setup
                0x00005e24       0x68 .\CortexM3\ARM_GCC_541\Debug\Scope-CY8CKIT-59.a(WaveB_DAC.o)
                0x00005e24                WaveB_DAC_Wave2Setup
 .text.WaveB_Buf_Init
                0x00005e8c       0x10 .\CortexM3\ARM_GCC_541\Debug\Scope-CY8CKIT-59.a(WaveB_Buf.o)
                0x00005e8c                WaveB_Buf_Init
 .text.WaveB_Buf_Enable
                0x00005e9c       0x48 .\CortexM3\ARM_GCC_541\Debug\Scope-CY8CKIT-59.a(WaveB_Buf.o)
                0x00005e9c                WaveB_Buf_Enable
 .text.WaveB_Buf_Start
                0x00005ee4       0x24 .\CortexM3\ARM_GCC_541\Debug\Scope-CY8CKIT-59.a(WaveB_Buf.o)
                0x00005ee4                WaveB_Buf_Start
 .text.WaveB_Buf_SetPower
                0x00005f08       0x40 .\CortexM3\ARM_GCC_541\Debug\Scope-CY8CKIT-59.a(WaveB_Buf.o)
                0x00005f08                WaveB_Buf_SetPower
 .text.AuxDAC_1_Init
                0x00005f48       0x28 .\CortexM3\ARM_GCC_541\Debug\Scope-CY8CKIT-59.a(AuxDAC_1.o)
                0x00005f48                AuxDAC_1_Init
 .text.AuxDAC_1_Enable
                0x00005f70       0x34 .\CortexM3\ARM_GCC_541\Debug\Scope-CY8CKIT-59.a(AuxDAC_1.o)
                0x00005f70                AuxDAC_1_Enable
 .text.AuxDAC_1_Start
                0x00005fa4       0x28 .\CortexM3\ARM_GCC_541\Debug\Scope-CY8CKIT-59.a(AuxDAC_1.o)
                0x00005fa4                AuxDAC_1_Start
 .text.AuxDAC_1_SetSpeed
                0x00005fcc       0x40 .\CortexM3\ARM_GCC_541\Debug\Scope-CY8CKIT-59.a(AuxDAC_1.o)
                0x00005fcc                AuxDAC_1_SetSpeed
 .text.AuxDAC_1_SetRange
                0x0000600c       0x40 .\CortexM3\ARM_GCC_541\Debug\Scope-CY8CKIT-59.a(AuxDAC_1.o)
                0x0000600c                AuxDAC_1_SetRange
 .text.AuxDAC_1_SetValue
                0x0000604c       0x20 .\CortexM3\ARM_GCC_541\Debug\Scope-CY8CKIT-59.a(AuxDAC_1.o)
                0x0000604c                AuxDAC_1_SetValue
 .text.AuxDAC_1_DacTrim
                0x0000606c       0x3c .\CortexM3\ARM_GCC_541\Debug\Scope-CY8CKIT-59.a(AuxDAC_1.o)
                0x0000606c                AuxDAC_1_DacTrim
 .text.AMux_1_Start
                0x000060a8       0x34 .\CortexM3\ARM_GCC_541\Debug\Scope-CY8CKIT-59.a(AMux_1.o)
                0x000060a8                AMux_1_Start
 .text.AMux_1_Select
                0x000060dc       0x28 .\CortexM3\ARM_GCC_541\Debug\Scope-CY8CKIT-59.a(AMux_1.o)
                0x000060dc                AMux_1_Select
 .text.AuxDAC_Buf_Init
                0x00006104       0x10 .\CortexM3\ARM_GCC_541\Debug\Scope-CY8CKIT-59.a(AuxDAC_Buf.o)
                0x00006104                AuxDAC_Buf_Init
 .text.AuxDAC_Buf_Enable
                0x00006114       0x48 .\CortexM3\ARM_GCC_541\Debug\Scope-CY8CKIT-59.a(AuxDAC_Buf.o)
                0x00006114                AuxDAC_Buf_Enable
 .text.AuxDAC_Buf_Start
                0x0000615c       0x24 .\CortexM3\ARM_GCC_541\Debug\Scope-CY8CKIT-59.a(AuxDAC_Buf.o)
                0x0000615c                AuxDAC_Buf_Start
 .text.AuxDAC_Buf_SetPower
                0x00006180       0x40 .\CortexM3\ARM_GCC_541\Debug\Scope-CY8CKIT-59.a(AuxDAC_Buf.o)
                0x00006180                AuxDAC_Buf_SetPower
 .text.WaveA_DAC_Init
                0x000061c0       0x54 .\CortexM3\ARM_GCC_541\Debug\Scope-CY8CKIT-59.a(WaveA_DAC.o)
                0x000061c0                WaveA_DAC_Init
 .text.WaveA_DAC_Enable
                0x00006214       0x34 .\CortexM3\ARM_GCC_541\Debug\Scope-CY8CKIT-59.a(WaveA_DAC.o)
                0x00006214                WaveA_DAC_Enable
 .text.WaveA_DAC_Start
                0x00006248       0x24 .\CortexM3\ARM_GCC_541\Debug\Scope-CY8CKIT-59.a(WaveA_DAC.o)
                0x00006248                WaveA_DAC_Start
 .text.WaveA_DAC_Wave1Setup
                0x0000626c       0x68 .\CortexM3\ARM_GCC_541\Debug\Scope-CY8CKIT-59.a(WaveA_DAC.o)
                0x0000626c                WaveA_DAC_Wave1Setup
 .text.WaveA_DAC_Wave2Setup
                0x000062d4       0x68 .\CortexM3\ARM_GCC_541\Debug\Scope-CY8CKIT-59.a(WaveA_DAC.o)
                0x000062d4                WaveA_DAC_Wave2Setup
 .text.WaveA_Buf_Init
                0x0000633c       0x10 .\CortexM3\ARM_GCC_541\Debug\Scope-CY8CKIT-59.a(WaveA_Buf.o)
                0x0000633c                WaveA_Buf_Init
 .text.WaveA_Buf_Enable
                0x0000634c       0x48 .\CortexM3\ARM_GCC_541\Debug\Scope-CY8CKIT-59.a(WaveA_Buf.o)
                0x0000634c                WaveA_Buf_Enable
 .text.WaveA_Buf_Start
                0x00006394       0x24 .\CortexM3\ARM_GCC_541\Debug\Scope-CY8CKIT-59.a(WaveA_Buf.o)
                0x00006394                WaveA_Buf_Start
 .text.WaveA_Buf_SetPower
                0x000063b8       0x40 .\CortexM3\ARM_GCC_541\Debug\Scope-CY8CKIT-59.a(WaveA_Buf.o)
                0x000063b8                WaveA_Buf_SetPower
 .text.WaveA_Clock_SetDividerRegister
                0x000063f8      0x164 .\CortexM3\ARM_GCC_541\Debug\Scope-CY8CKIT-59.a(WaveA_Clock.o)
                0x000063f8                WaveA_Clock_SetDividerRegister
 .text.WaveA_Clock_GetDividerRegister
                0x0000655c       0x18 .\CortexM3\ARM_GCC_541\Debug\Scope-CY8CKIT-59.a(WaveA_Clock.o)
                0x0000655c                WaveA_Clock_GetDividerRegister
 .text.WaveA_Clock_GetSourceRegister
                0x00006574       0x1c .\CortexM3\ARM_GCC_541\Debug\Scope-CY8CKIT-59.a(WaveA_Clock.o)
                0x00006574                WaveA_Clock_GetSourceRegister
 .text.AMux_2_Start
                0x00006590       0x34 .\CortexM3\ARM_GCC_541\Debug\Scope-CY8CKIT-59.a(AMux_2.o)
                0x00006590                AMux_2_Start
 .text.AMux_2_Select
                0x000065c4       0x28 .\CortexM3\ARM_GCC_541\Debug\Scope-CY8CKIT-59.a(AMux_2.o)
                0x000065c4                AMux_2_Select
 .text.ScopeC_Buf_Init
                0x000065ec       0x3c .\CortexM3\ARM_GCC_541\Debug\Scope-CY8CKIT-59.a(ScopeC_Buf.o)
                0x000065ec                ScopeC_Buf_Init
 .text.ScopeC_Buf_Enable
                0x00006628       0x48 .\CortexM3\ARM_GCC_541\Debug\Scope-CY8CKIT-59.a(ScopeC_Buf.o)
                0x00006628                ScopeC_Buf_Enable
 .text.ScopeC_Buf_Start
                0x00006670       0x24 .\CortexM3\ARM_GCC_541\Debug\Scope-CY8CKIT-59.a(ScopeC_Buf.o)
                0x00006670                ScopeC_Buf_Start
 .text.ScopeC_Buf_SetPower
                0x00006694       0x38 .\CortexM3\ARM_GCC_541\Debug\Scope-CY8CKIT-59.a(ScopeC_Buf.o)
                0x00006694                ScopeC_Buf_SetPower
 .text.ScopeC_Buf_SetGain
                0x000066cc       0xbc .\CortexM3\ARM_GCC_541\Debug\Scope-CY8CKIT-59.a(ScopeC_Buf.o)
                0x000066cc                ScopeC_Buf_SetGain
 .text.ScopeD_Buf_Init
                0x00006788       0x3c .\CortexM3\ARM_GCC_541\Debug\Scope-CY8CKIT-59.a(ScopeD_Buf.o)
                0x00006788                ScopeD_Buf_Init
 .text.ScopeD_Buf_Enable
                0x000067c4       0x48 .\CortexM3\ARM_GCC_541\Debug\Scope-CY8CKIT-59.a(ScopeD_Buf.o)
                0x000067c4                ScopeD_Buf_Enable
 .text.ScopeD_Buf_Start
                0x0000680c       0x24 .\CortexM3\ARM_GCC_541\Debug\Scope-CY8CKIT-59.a(ScopeD_Buf.o)
                0x0000680c                ScopeD_Buf_Start
 .text.ScopeD_Buf_SetPower
                0x00006830       0x38 .\CortexM3\ARM_GCC_541\Debug\Scope-CY8CKIT-59.a(ScopeD_Buf.o)
                0x00006830                ScopeD_Buf_SetPower
 .text.ScopeD_Buf_SetGain
                0x00006868       0xbc .\CortexM3\ARM_GCC_541\Debug\Scope-CY8CKIT-59.a(ScopeD_Buf.o)
                0x00006868                ScopeD_Buf_SetGain
 .text.WaveB_DAC_Wave1_DMA_DmaInitialize
                0x00006924       0x64 .\CortexM3\ARM_GCC_541\Debug\Scope-CY8CKIT-59.a(WaveB_DAC_Wave1_DMA_dma.o)
                0x00006924                WaveB_DAC_Wave1_DMA_DmaInitialize
 .text.WaveB_DAC_Wave2_DMA_DmaInitialize
                0x00006988       0x64 .\CortexM3\ARM_GCC_541\Debug\Scope-CY8CKIT-59.a(WaveB_DAC_Wave2_DMA_dma.o)
                0x00006988                WaveB_DAC_Wave2_DMA_DmaInitialize
 .text.WaveB_DAC_VDAC8_Init
                0x000069ec       0x3c .\CortexM3\ARM_GCC_541\Debug\Scope-CY8CKIT-59.a(WaveB_DAC_VDAC8.o)
                0x000069ec                WaveB_DAC_VDAC8_Init
 .text.WaveB_DAC_VDAC8_Enable
                0x00006a28       0x34 .\CortexM3\ARM_GCC_541\Debug\Scope-CY8CKIT-59.a(WaveB_DAC_VDAC8.o)
                0x00006a28                WaveB_DAC_VDAC8_Enable
 .text.WaveB_DAC_VDAC8_SetSpeed
                0x00006a5c       0x40 .\CortexM3\ARM_GCC_541\Debug\Scope-CY8CKIT-59.a(WaveB_DAC_VDAC8.o)
                0x00006a5c                WaveB_DAC_VDAC8_SetSpeed
 .text.WaveB_DAC_VDAC8_SetRange
                0x00006a9c       0x40 .\CortexM3\ARM_GCC_541\Debug\Scope-CY8CKIT-59.a(WaveB_DAC_VDAC8.o)
                0x00006a9c                WaveB_DAC_VDAC8_SetRange
 .text.WaveB_DAC_VDAC8_SetValue
                0x00006adc       0x20 .\CortexM3\ARM_GCC_541\Debug\Scope-CY8CKIT-59.a(WaveB_DAC_VDAC8.o)
                0x00006adc                WaveB_DAC_VDAC8_SetValue
 .text.WaveB_DAC_VDAC8_DacTrim
                0x00006afc       0x3c .\CortexM3\ARM_GCC_541\Debug\Scope-CY8CKIT-59.a(WaveB_DAC_VDAC8.o)
                0x00006afc                WaveB_DAC_VDAC8_DacTrim
 .text.WaveA_DAC_Wave1_DMA_DmaInitialize
                0x00006b38       0x64 .\CortexM3\ARM_GCC_541\Debug\Scope-CY8CKIT-59.a(WaveA_DAC_Wave1_DMA_dma.o)
                0x00006b38                WaveA_DAC_Wave1_DMA_DmaInitialize
 .text.WaveA_DAC_Wave2_DMA_DmaInitialize
                0x00006b9c       0x64 .\CortexM3\ARM_GCC_541\Debug\Scope-CY8CKIT-59.a(WaveA_DAC_Wave2_DMA_dma.o)
                0x00006b9c                WaveA_DAC_Wave2_DMA_DmaInitialize
 .text.WaveA_DAC_VDAC8_Init
                0x00006c00       0x3c .\CortexM3\ARM_GCC_541\Debug\Scope-CY8CKIT-59.a(WaveA_DAC_VDAC8.o)
                0x00006c00                WaveA_DAC_VDAC8_Init
 .text.WaveA_DAC_VDAC8_Enable
                0x00006c3c       0x34 .\CortexM3\ARM_GCC_541\Debug\Scope-CY8CKIT-59.a(WaveA_DAC_VDAC8.o)
                0x00006c3c                WaveA_DAC_VDAC8_Enable
 .text.WaveA_DAC_VDAC8_SetSpeed
                0x00006c70       0x40 .\CortexM3\ARM_GCC_541\Debug\Scope-CY8CKIT-59.a(WaveA_DAC_VDAC8.o)
                0x00006c70                WaveA_DAC_VDAC8_SetSpeed
 .text.WaveA_DAC_VDAC8_SetRange
                0x00006cb0       0x40 .\CortexM3\ARM_GCC_541\Debug\Scope-CY8CKIT-59.a(WaveA_DAC_VDAC8.o)
                0x00006cb0                WaveA_DAC_VDAC8_SetRange
 .text.WaveA_DAC_VDAC8_SetValue
                0x00006cf0       0x20 .\CortexM3\ARM_GCC_541\Debug\Scope-CY8CKIT-59.a(WaveA_DAC_VDAC8.o)
                0x00006cf0                WaveA_DAC_VDAC8_SetValue
 .text.WaveA_DAC_VDAC8_DacTrim
                0x00006d10       0x3c .\CortexM3\ARM_GCC_541\Debug\Scope-CY8CKIT-59.a(WaveA_DAC_VDAC8.o)
                0x00006d10                WaveA_DAC_VDAC8_DacTrim
 .text.NoiseA_Clock_SetDividerRegister
                0x00006d4c      0x164 .\CortexM3\ARM_GCC_541\Debug\Scope-CY8CKIT-59.a(NoiseA_Clock.o)
                0x00006d4c                NoiseA_Clock_SetDividerRegister
 .text.NoiseA_Clock_GetDividerRegister
                0x00006eb0       0x18 .\CortexM3\ARM_GCC_541\Debug\Scope-CY8CKIT-59.a(NoiseA_Clock.o)
                0x00006eb0                NoiseA_Clock_GetDividerRegister
 .text.NoiseA_Clock_GetSourceRegister
                0x00006ec8       0x1c .\CortexM3\ARM_GCC_541\Debug\Scope-CY8CKIT-59.a(NoiseA_Clock.o)
                0x00006ec8                NoiseA_Clock_GetSourceRegister
 .text.VRef_Buf_Init
                0x00006ee4       0x10 .\CortexM3\ARM_GCC_541\Debug\Scope-CY8CKIT-59.a(VRef_Buf.o)
                0x00006ee4                VRef_Buf_Init
 .text.VRef_Buf_Enable
                0x00006ef4       0x48 .\CortexM3\ARM_GCC_541\Debug\Scope-CY8CKIT-59.a(VRef_Buf.o)
                0x00006ef4                VRef_Buf_Enable
 .text.VRef_Buf_Start
                0x00006f3c       0x24 .\CortexM3\ARM_GCC_541\Debug\Scope-CY8CKIT-59.a(VRef_Buf.o)
                0x00006f3c                VRef_Buf_Start
 .text.VRef_Buf_SetPower
                0x00006f60       0x40 .\CortexM3\ARM_GCC_541\Debug\Scope-CY8CKIT-59.a(VRef_Buf.o)
                0x00006f60                VRef_Buf_SetPower
 .text          0x00006fa0       0x20 .\CortexM3\ARM_GCC_541\Debug\Scope-CY8CKIT-59.a(CyBootAsmGnu.o)
                0x00006fa0                CyDelayCycles
                0x00006fb0                CyEnterCriticalSection
                0x00006fb8                CyExitCriticalSection
 .text.USBUART_DispatchClassRqst
                0x00006fc0       0x84 .\CortexM3\ARM_GCC_541\Debug\Scope-CY8CKIT-59.a(USBUART_cls.o)
                0x00006fc0                USBUART_DispatchClassRqst
 .text          0x00007044      0x370 c:/program files (x86)/cypress/psoc creator/4.4/psoc creator/import/gnu/arm/5.4.1/bin/../lib/gcc/arm-none-eabi/5.4.1/armv7-m\libgcc.a(_arm_addsubdf3.o)
                0x00007044                __aeabi_drsub
                0x0000704c                __aeabi_dsub
                0x0000704c                __subdf3
                0x00007050                __aeabi_dadd
                0x00007050                __adddf3
                0x000072c8                __floatunsidf
                0x000072c8                __aeabi_ui2d
                0x000072e8                __floatsidf
                0x000072e8                __aeabi_i2d
                0x0000730c                __aeabi_f2d
                0x0000730c                __extendsfdf2
                0x00007348                __floatundidf
                0x00007348                __aeabi_ul2d
                0x00007358                __floatdidf
                0x00007358                __aeabi_l2d
 .text          0x000073b4      0x424 c:/program files (x86)/cypress/psoc creator/4.4/psoc creator/import/gnu/arm/5.4.1/bin/../lib/gcc/arm-none-eabi/5.4.1/armv7-m\libgcc.a(_arm_muldivdf3.o)
                0x000073b4                __aeabi_dmul
                0x000073b4                __muldf3
                0x00007608                __divdf3
                0x00007608                __aeabi_ddiv
 .text          0x000077d8       0x40 c:/program files (x86)/cypress/psoc creator/4.4/psoc creator/import/gnu/arm/5.4.1/bin/../lib/gcc/arm-none-eabi/5.4.1/armv7-m\libgcc.a(_arm_fixunsdfsi.o)
                0x000077d8                __aeabi_d2uiz
                0x000077d8                __fixunsdfsi
 .text          0x00007818       0xa0 c:/program files (x86)/cypress/psoc creator/4.4/psoc creator/import/gnu/arm/5.4.1/bin/../lib/gcc/arm-none-eabi/5.4.1/armv7-m\libgcc.a(_arm_truncdfsf2.o)
                0x00007818                __truncdfsf2
                0x00007818                __aeabi_d2f
 .text          0x000078b8      0x21c c:/program files (x86)/cypress/psoc creator/4.4/psoc creator/import/gnu/arm/5.4.1/bin/../lib/gcc/arm-none-eabi/5.4.1/armv7-m\libgcc.a(_arm_addsubsf3.o)
                0x000078b8                __aeabi_frsub
                0x000078c0                __subsf3
                0x000078c0                __aeabi_fsub
                0x000078c4                __aeabi_fadd
                0x000078c4                __addsf3
                0x00007a24                __aeabi_ui2f
                0x00007a24                __floatunsisf
                0x00007a2c                __aeabi_i2f
                0x00007a2c                __floatsisf
                0x00007a48                __aeabi_ul2f
                0x00007a48                __floatundisf
                0x00007a58                __aeabi_l2f
                0x00007a58                __floatdisf
 .text          0x00007ad4      0x2a0 c:/program files (x86)/cypress/psoc creator/4.4/psoc creator/import/gnu/arm/5.4.1/bin/../lib/gcc/arm-none-eabi/5.4.1/armv7-m\libgcc.a(_arm_muldivsf3.o)
                0x00007ad4                __mulsf3
                0x00007ad4                __aeabi_fmul
                0x00007c3c                __aeabi_fdiv
                0x00007c3c                __divsf3
 .text          0x00007d74       0xec c:/program files (x86)/cypress/psoc creator/4.4/psoc creator/import/gnu/arm/5.4.1/bin/../lib/gcc/arm-none-eabi/5.4.1/armv7-m\libgcc.a(_arm_cmpsf2.o)
                0x00007d74                __gesf2
                0x00007d74                __gtsf2
                0x00007d7c                __lesf2
                0x00007d7c                __ltsf2
                0x00007d84                __nesf2
                0x00007d84                __eqsf2
                0x00007d84                __cmpsf2
                0x00007de4                __aeabi_cfrcmple
                0x00007dec                __aeabi_cfcmpeq
                0x00007dec                __aeabi_cfcmple
                0x00007dfc                __aeabi_fcmpeq
                0x00007e10                __aeabi_fcmplt
                0x00007e24                __aeabi_fcmple
                0x00007e38                __aeabi_fcmpge
                0x00007e4c                __aeabi_fcmpgt
 .text          0x00007e60       0x40 c:/program files (x86)/cypress/psoc creator/4.4/psoc creator/import/gnu/arm/5.4.1/bin/../lib/gcc/arm-none-eabi/5.4.1/armv7-m\libgcc.a(_arm_fixunssfsi.o)
                0x00007e60                __fixunssfsi
                0x00007e60                __aeabi_f2uiz
 .text.__errno  0x00007ea0        0xc c:/program files (x86)/cypress/psoc creator/4.4/psoc creator/import/gnu/arm/5.4.1/bin/../lib/gcc/arm-none-eabi/5.4.1/../../../../arm-none-eabi/lib/armv7-m\libg_nano.a(lib_a-errno.o)
                0x00007ea0                __errno
 .text.__libc_init_array
                0x00007eac       0x4c c:/program files (x86)/cypress/psoc creator/4.4/psoc creator/import/gnu/arm/5.4.1/bin/../lib/gcc/arm-none-eabi/5.4.1/../../../../arm-none-eabi/lib/armv7-m\libg_nano.a(lib_a-init.o)
                0x00007eac                __libc_init_array
 .text.memcpy   0x00007ef8       0x16 c:/program files (x86)/cypress/psoc creator/4.4/psoc creator/import/gnu/arm/5.4.1/bin/../lib/gcc/arm-none-eabi/5.4.1/../../../../arm-none-eabi/lib/armv7-m\libg_nano.a(lib_a-memcpy-stub.o)
                0x00007ef8                memcpy
 .text.memset   0x00007f0e       0x10 c:/program files (x86)/cypress/psoc creator/4.4/psoc creator/import/gnu/arm/5.4.1/bin/../lib/gcc/arm-none-eabi/5.4.1/../../../../arm-none-eabi/lib/armv7-m\libg_nano.a(lib_a-memset.o)
                0x00007f0e                memset
 *fill*         0x00007f1e        0x2 
 .text.sscanf   0x00007f20       0x54 c:/program files (x86)/cypress/psoc creator/4.4/psoc creator/import/gnu/arm/5.4.1/bin/../lib/gcc/arm-none-eabi/5.4.1/../../../../arm-none-eabi/lib/armv7-m\libg_nano.a(lib_a-sscanf.o)
                0x00007f20                siscanf
                0x00007f20                sscanf
 .text.__seofread
                0x00007f74        0x4 c:/program files (x86)/cypress/psoc creator/4.4/psoc creator/import/gnu/arm/5.4.1/bin/../lib/gcc/arm-none-eabi/5.4.1/../../../../arm-none-eabi/lib/armv7-m\libg_nano.a(lib_a-stdio.o)
                0x00007f74                __seofread
 .text          0x00007f78       0x10 c:/program files (x86)/cypress/psoc creator/4.4/psoc creator/import/gnu/arm/5.4.1/bin/../lib/gcc/arm-none-eabi/5.4.1/../../../../arm-none-eabi/lib/armv7-m\libg_nano.a(lib_a-strlen.o)
                0x00007f78                strlen
 .text.strtok   0x00007f88       0x64 c:/program files (x86)/cypress/psoc creator/4.4/psoc creator/import/gnu/arm/5.4.1/bin/../lib/gcc/arm-none-eabi/5.4.1/../../../../arm-none-eabi/lib/armv7-m\libg_nano.a(lib_a-strtok.o)
                0x00007f88                strtok
 .text.__strtok_r
                0x00007fec       0x56 c:/program files (x86)/cypress/psoc creator/4.4/psoc creator/import/gnu/arm/5.4.1/bin/../lib/gcc/arm-none-eabi/5.4.1/../../../../arm-none-eabi/lib/armv7-m\libg_nano.a(lib_a-strtok_r.o)
                0x00007fec                __strtok_r
 *fill*         0x00008042        0x2 
 .text.malloc   0x00008044       0x10 c:/program files (x86)/cypress/psoc creator/4.4/psoc creator/import/gnu/arm/5.4.1/bin/../lib/gcc/arm-none-eabi/5.4.1/../../../../arm-none-eabi/lib/armv7-m\libg_nano.a(lib_a-malloc.o)
                0x00008044                malloc
 .text._free_r  0x00008054       0x98 c:/program files (x86)/cypress/psoc creator/4.4/psoc creator/import/gnu/arm/5.4.1/bin/../lib/gcc/arm-none-eabi/5.4.1/../../../../arm-none-eabi/lib/armv7-m\libg_nano.a(lib_a-nano-freer.o)
                0x00008054                _free_r
 .text._malloc_r
                0x000080ec       0xbc c:/program files (x86)/cypress/psoc creator/4.4/psoc creator/import/gnu/arm/5.4.1/bin/../lib/gcc/arm-none-eabi/5.4.1/../../../../arm-none-eabi/lib/armv7-m\libg_nano.a(lib_a-nano-mallocr.o)
                0x000080ec                _malloc_r
 .text._sungetc_r
                0x000081a8       0x7c c:/program files (x86)/cypress/psoc creator/4.4/psoc creator/import/gnu/arm/5.4.1/bin/../lib/gcc/arm-none-eabi/5.4.1/../../../../arm-none-eabi/lib/armv7-m\libg_nano.a(lib_a-nano-svfscanf.o)
                0x000081a8                _sungetc_r
 .text.__ssrefill_r
                0x00008224       0x3a c:/program files (x86)/cypress/psoc creator/4.4/psoc creator/import/gnu/arm/5.4.1/bin/../lib/gcc/arm-none-eabi/5.4.1/../../../../arm-none-eabi/lib/armv7-m\libg_nano.a(lib_a-nano-svfscanf.o)
                0x00008224                __ssrefill_r
 *fill*         0x0000825e        0x2 
 .text.__ssvfscanf_r
                0x00008260      0x2a8 c:/program files (x86)/cypress/psoc creator/4.4/psoc creator/import/gnu/arm/5.4.1/bin/../lib/gcc/arm-none-eabi/5.4.1/../../../../arm-none-eabi/lib/armv7-m\libg_nano.a(lib_a-nano-svfscanf.o)
                0x00008260                __ssvfiscanf_r
                0x00008260                __ssvfscanf_r
 .text._scanf_chars
                0x00008508       0xcc c:/program files (x86)/cypress/psoc creator/4.4/psoc creator/import/gnu/arm/5.4.1/bin/../lib/gcc/arm-none-eabi/5.4.1/../../../../arm-none-eabi/lib/armv7-m\libg_nano.a(lib_a-nano-vfscanf_i.o)
                0x00008508                _scanf_chars
 .text._scanf_i
                0x000085d4      0x1e4 c:/program files (x86)/cypress/psoc creator/4.4/psoc creator/import/gnu/arm/5.4.1/bin/../lib/gcc/arm-none-eabi/5.4.1/../../../../arm-none-eabi/lib/armv7-m\libg_nano.a(lib_a-nano-vfscanf_i.o)
                0x000085d4                _scanf_i
 .text._sbrk_r  0x000087b8       0x20 c:/program files (x86)/cypress/psoc creator/4.4/psoc creator/import/gnu/arm/5.4.1/bin/../lib/gcc/arm-none-eabi/5.4.1/../../../../arm-none-eabi/lib/armv7-m\libg_nano.a(lib_a-sbrkr.o)
                0x000087b8                _sbrk_r
 .text.__sccl   0x000087d8       0x60 c:/program files (x86)/cypress/psoc creator/4.4/psoc creator/import/gnu/arm/5.4.1/bin/../lib/gcc/arm-none-eabi/5.4.1/../../../../arm-none-eabi/lib/armv7-m\libg_nano.a(lib_a-sccl.o)
                0x000087d8                __sccl
 .text._strtol_r
                0x00008838      0x10c c:/program files (x86)/cypress/psoc creator/4.4/psoc creator/import/gnu/arm/5.4.1/bin/../lib/gcc/arm-none-eabi/5.4.1/../../../../arm-none-eabi/lib/armv7-m\libg_nano.a(lib_a-strtol.o)
                0x00008838                _strtol_r
 .text._strtoul_r
                0x00008944       0xfc c:/program files (x86)/cypress/psoc creator/4.4/psoc creator/import/gnu/arm/5.4.1/bin/../lib/gcc/arm-none-eabi/5.4.1/../../../../arm-none-eabi/lib/armv7-m\libg_nano.a(lib_a-strtoul.o)
                0x00008944                _strtoul_r
 .text.__submore
                0x00008a40       0x72 c:/program files (x86)/cypress/psoc creator/4.4/psoc creator/import/gnu/arm/5.4.1/bin/../lib/gcc/arm-none-eabi/5.4.1/../../../../arm-none-eabi/lib/armv7-m\libg_nano.a(lib_a-ungetc.o)
                0x00008a40                __submore
 .text.memchr   0x00008ab2       0x1c c:/program files (x86)/cypress/psoc creator/4.4/psoc creator/import/gnu/arm/5.4.1/bin/../lib/gcc/arm-none-eabi/5.4.1/../../../../arm-none-eabi/lib/armv7-m\libg_nano.a(lib_a-memchr-stub.o)
                0x00008ab2                memchr
 .text.__malloc_lock
                0x00008ace        0x2 c:/program files (x86)/cypress/psoc creator/4.4/psoc creator/import/gnu/arm/5.4.1/bin/../lib/gcc/arm-none-eabi/5.4.1/../../../../arm-none-eabi/lib/armv7-m\libg_nano.a(lib_a-mlock.o)
                0x00008ace                __malloc_lock
 .text.__malloc_unlock
                0x00008ad0        0x2 c:/program files (x86)/cypress/psoc creator/4.4/psoc creator/import/gnu/arm/5.4.1/bin/../lib/gcc/arm-none-eabi/5.4.1/../../../../arm-none-eabi/lib/armv7-m\libg_nano.a(lib_a-mlock.o)
                0x00008ad0                __malloc_unlock
 .text._realloc_r
                0x00008ad2       0x4c c:/program files (x86)/cypress/psoc creator/4.4/psoc creator/import/gnu/arm/5.4.1/bin/../lib/gcc/arm-none-eabi/5.4.1/../../../../arm-none-eabi/lib/armv7-m\libg_nano.a(lib_a-nano-reallocr.o)
                0x00008ad2                _realloc_r
 .text._malloc_usable_size_r
                0x00008b1e       0x14 c:/program files (x86)/cypress/psoc creator/4.4/psoc creator/import/gnu/arm/5.4.1/bin/../lib/gcc/arm-none-eabi/5.4.1/../../../../arm-none-eabi/lib/armv7-m\libg_nano.a(lib_a-nano-msizer.o)
                0x00008b1e                _malloc_usable_size_r
 *(.plt)
 *(.gnu.warning)
 *(.glue_7t)
 .glue_7t       0x00008b32        0x0 linker stubs
 *(.glue_7)
 .glue_7        0x00008b32        0x0 linker stubs
 *(.vfp11_veneer)
 .vfp11_veneer  0x00008b32        0x0 linker stubs
 *(.bootloader)
 *(.ARM.extab* .gnu.linkonce.armextab.*)
 *(.gcc_except_table)

.v4_bx          0x00008b34        0x0
 .v4_bx         0x00008b34        0x0 linker stubs

.iplt           0x00008b34        0x0
 .iplt          0x00008b34        0x0 c:/program files (x86)/cypress/psoc creator/4.4/psoc creator/import/gnu/arm/5.4.1/bin/../lib/gcc/arm-none-eabi/5.4.1/armv7-m/crtbegin.o

.eh_frame_hdr
 *(.eh_frame_hdr)

.eh_frame       0x00008b34        0x4
 *(.eh_frame)
 .eh_frame      0x00008b34        0x0 c:/program files (x86)/cypress/psoc creator/4.4/psoc creator/import/gnu/arm/5.4.1/bin/../lib/gcc/arm-none-eabi/5.4.1/armv7-m/crtbegin.o
 .eh_frame      0x00008b34        0x4 c:/program files (x86)/cypress/psoc creator/4.4/psoc creator/import/gnu/arm/5.4.1/bin/../lib/gcc/arm-none-eabi/5.4.1/armv7-m/crtend.o
                [!provide]                PROVIDE (__exidx_start, .)

.ARM.exidx
 *(.ARM.exidx* .gnu.linkonce.armexidx.*)
                0x00008b38                __exidx_end = .

.rodata         0x00008b38      0x6f0
 *(.rodata .rodata.* .gnu.linkonce.r.*)
 .rodata        0x00008b38       0x59 .\CortexM3\ARM_GCC_541\Debug\main.o
 *fill*         0x00008b91        0x3 
 .rodata        0x00008b94       0x54 .\CortexM3\ARM_GCC_541\Debug\cyfitter_cfg.o
                0x00008b94                AMux_1__addrTable
                0x00008b9c                AMux_1__maskTable
                0x00008ba0                AMux_2__addrTable
                0x00008bb0                AMux_2__maskTable
                0x00008bb4                Amux_Trigger__addrTable
                0x00008bc0                Amux_Trigger__maskTable
 .rodata        0x00008be8       0x11 .\CortexM3\ARM_GCC_541\Debug\Scope-CY8CKIT-59.a(USBUART_std.o)
 *fill*         0x00008bf9        0x3 
 .rodata        0x00008bfc       0x15 .\CortexM3\ARM_GCC_541\Debug\Scope-CY8CKIT-59.a(ScopeA_Buf.o)
 *fill*         0x00008c11        0x3 
 .rodata        0x00008c14       0x15 .\CortexM3\ARM_GCC_541\Debug\Scope-CY8CKIT-59.a(ScopeB_Buf.o)
 *fill*         0x00008c29        0x3 
 .rodata        0x00008c2c      0x132 .\CortexM3\ARM_GCC_541\Debug\Scope-CY8CKIT-59.a(WaveB_DAC.o)
                0x00008c2c                WaveB_DAC_wave1
                0x00008d2c                WaveB_DAC_wave2
 *fill*         0x00008d5e        0x2 
 .rodata        0x00008d60      0x132 .\CortexM3\ARM_GCC_541\Debug\Scope-CY8CKIT-59.a(WaveA_DAC.o)
                0x00008d60                WaveA_DAC_wave1
                0x00008e60                WaveA_DAC_wave2
 *fill*         0x00008e92        0x2 
 .rodata        0x00008e94       0x15 .\CortexM3\ARM_GCC_541\Debug\Scope-CY8CKIT-59.a(ScopeC_Buf.o)
 *fill*         0x00008ea9        0x3 
 .rodata        0x00008eac       0x15 .\CortexM3\ARM_GCC_541\Debug\Scope-CY8CKIT-59.a(ScopeD_Buf.o)
 *fill*         0x00008ec1        0x3 
 .rodata        0x00008ec4      0x19c .\CortexM3\ARM_GCC_541\Debug\Scope-CY8CKIT-59.a(USBUART_descr.o)
                0x00008ec4                USBUART_DEVICE0_DESCR
                0x00008ed8                USBUART_DEVICE0_CONFIGURATION0_DESCR
                0x00008f1c                USBUART_STRING_DESCRIPTORS
                0x00008fbc                USBUART_SN_STRING_DESCRIPTOR
                0x00008fc0                USBUART_DEVICE0_CONFIGURATION0_EP_SETTINGS_TABLE
                0x00008fd8                USBUART_DEVICE0_CONFIGURATION0_INTERFACE_CLASS
                0x00008fdc                USBUART_DEVICE0_CONFIGURATION0_TABLE
                0x00009004                USBUART_DEVICE0_TABLE
                0x0000901c                USBUART_TABLE
                0x00009024                USBUART_MSOS_DESCRIPTOR
                0x00009038                USBUART_MSOS_CONFIGURATION_DESCR
 .rodata.str1.1
                0x00009060        0x2 c:/program files (x86)/cypress/psoc creator/4.4/psoc creator/import/gnu/arm/5.4.1/bin/../lib/gcc/arm-none-eabi/5.4.1/../../../../arm-none-eabi/lib/armv7-m\libg_nano.a(lib_a-impure.o)
 .rodata.str1.1
                0x00009062        0x4 c:/program files (x86)/cypress/psoc creator/4.4/psoc creator/import/gnu/arm/5.4.1/bin/../lib/gcc/arm-none-eabi/5.4.1/../../../../arm-none-eabi/lib/armv7-m\libg_nano.a(lib_a-nano-svfscanf.o)
 *fill*         0x00009066        0x2 
 .rodata        0x00009068        0xc c:/program files (x86)/cypress/psoc creator/4.4/psoc creator/import/gnu/arm/5.4.1/bin/../lib/gcc/arm-none-eabi/5.4.1/../../../../arm-none-eabi/lib/armv7-m\libg_nano.a(lib_a-nano-vfscanf_i.o)
 .rodata.str1.1
                0x00009074       0x1b c:/program files (x86)/cypress/psoc creator/4.4/psoc creator/import/gnu/arm/5.4.1/bin/../lib/gcc/arm-none-eabi/5.4.1/../../../../arm-none-eabi/lib/armv7-m\libg_nano.a(lib_a-nano-vfscanf_i.o)
 .rodata._ctype_
                0x0000908f      0x101 c:/program files (x86)/cypress/psoc creator/4.4/psoc creator/import/gnu/arm/5.4.1/bin/../lib/gcc/arm-none-eabi/5.4.1/../../../../arm-none-eabi/lib/armv7-m\libg_nano.a(lib_a-ctype_.o)
                0x0000908f                _ctype_
 .rodata.__sf_fake_stdin
                0x00009190       0x20 c:/program files (x86)/cypress/psoc creator/4.4/psoc creator/import/gnu/arm/5.4.1/bin/../lib/gcc/arm-none-eabi/5.4.1/../../../../arm-none-eabi/lib/armv7-m\libg_nano.a(lib_a-findfp.o)
                0x00009190                __sf_fake_stdin
 .rodata.__sf_fake_stdout
                0x000091b0       0x20 c:/program files (x86)/cypress/psoc creator/4.4/psoc creator/import/gnu/arm/5.4.1/bin/../lib/gcc/arm-none-eabi/5.4.1/../../../../arm-none-eabi/lib/armv7-m\libg_nano.a(lib_a-findfp.o)
                0x000091b0                __sf_fake_stdout
 .rodata.__sf_fake_stderr
                0x000091d0       0x20 c:/program files (x86)/cypress/psoc creator/4.4/psoc creator/import/gnu/arm/5.4.1/bin/../lib/gcc/arm-none-eabi/5.4.1/../../../../arm-none-eabi/lib/armv7-m\libg_nano.a(lib_a-findfp.o)
                0x000091d0                __sf_fake_stderr
                0x000091f0                . = ALIGN (0x4)
 *(.init)
 .init          0x000091f0        0x4 c:/program files (x86)/cypress/psoc creator/4.4/psoc creator/import/gnu/arm/5.4.1/bin/../lib/gcc/arm-none-eabi/5.4.1/armv7-m/crti.o
                0x000091f0                _init
 .init          0x000091f4        0x8 c:/program files (x86)/cypress/psoc creator/4.4/psoc creator/import/gnu/arm/5.4.1/bin/../lib/gcc/arm-none-eabi/5.4.1/armv7-m/crtn.o
                0x000091fc                . = ALIGN (0x4)
                0x000091fc                __preinit_array_start = .
 *(.preinit_array)
                0x000091fc                __preinit_array_end = .
                0x000091fc                . = ALIGN (0x4)
                0x000091fc                __init_array_start = .
 *(SORT(.init_array.*))
 *(.init_array)
 .init_array    0x000091fc        0x4 c:/program files (x86)/cypress/psoc creator/4.4/psoc creator/import/gnu/arm/5.4.1/bin/../lib/gcc/arm-none-eabi/5.4.1/armv7-m/crtbegin.o
 .init_array    0x00009200        0x4 .\CortexM3\ARM_GCC_541\Debug\Cm3Start.o
                0x00009204                __init_array_end = .
                0x00009204                . = ALIGN (0x4)
 *(.fini)
 .fini          0x00009204        0x4 c:/program files (x86)/cypress/psoc creator/4.4/psoc creator/import/gnu/arm/5.4.1/bin/../lib/gcc/arm-none-eabi/5.4.1/armv7-m/crti.o
                0x00009204                _fini
 .fini          0x00009208        0x8 c:/program files (x86)/cypress/psoc creator/4.4/psoc creator/import/gnu/arm/5.4.1/bin/../lib/gcc/arm-none-eabi/5.4.1/armv7-m/crtn.o
                0x00009210                . = ALIGN (0x4)
                0x00009210                __fini_array_start = .
 *(.fini_array)
 .fini_array    0x00009210        0x4 c:/program files (x86)/cypress/psoc creator/4.4/psoc creator/import/gnu/arm/5.4.1/bin/../lib/gcc/arm-none-eabi/5.4.1/armv7-m/crtbegin.o
 *(SORT(.fini_array.*))
                0x00009214                __fini_array_end = .
                0x00009214                . = ALIGN (0x4)
 *crtbegin.o(.ctors)
 *(EXCLUDE_FILE(*crtend.o) .ctors)
 *(SORT(.ctors.*))
 *crtend.o(.ctors)
                0x00009214                . = ALIGN (0x4)
 *crtbegin.o(.dtors)
 *(EXCLUDE_FILE(*crtend.o) .dtors)
 *(SORT(.dtors.*))
 *crtend.o(.dtors)
                0x00009214                . = ALIGN (0x4)
                0x00009214                __cy_regions = .
                0x00009214        0x4 LONG 0x9228 __cy_region_init_ram
                0x00009218        0x4 LONG 0x1fff80c8 __cy_region_start_data
                0x0000921c        0x4 LONG 0xb0 __cy_region_init_size_ram
                0x00009220        0x4 LONG 0x4228 __cy_region_zero_size_ram
                0x00009224                __cy_regions_end = .
                0x00009228                . = ALIGN (0x8)
 *fill*         0x00009224        0x4 
                0x00009228                _etext = .

.cy_checksum_exclude
                0x00009228        0x0
 *(.cy_checksum_exclude)

.ramvectors     0x1fff8000       0xc0
                0x1fff8000                __cy_region_start_ram = .
 *(.ramvectors)
 .ramvectors    0x1fff8000       0xc0 .\CortexM3\ARM_GCC_541\Debug\Cm3Start.o
                0x1fff8000                CyRamVectors

.noinit         0x1fff80c0        0x5
 *(.noinit)
 .noinit        0x1fff80c0        0x4 .\CortexM3\ARM_GCC_541\Debug\Cm3Start.o
 .noinit        0x1fff80c4        0x1 .\CortexM3\ARM_GCC_541\Debug\Scope-CY8CKIT-59.a(CyLib.o)
                0x1fff80c4                CyResetStatus

.data           0x1fff80c8       0xb0 load address 0x00009228
                0x1fff80c8                __cy_region_start_data = .
 *(.jcr)
 .jcr           0x1fff80c8        0x0 c:/program files (x86)/cypress/psoc creator/4.4/psoc creator/import/gnu/arm/5.4.1/bin/../lib/gcc/arm-none-eabi/5.4.1/armv7-m/crtbegin.o
 .jcr           0x1fff80c8        0x4 c:/program files (x86)/cypress/psoc creator/4.4/psoc creator/import/gnu/arm/5.4.1/bin/../lib/gcc/arm-none-eabi/5.4.1/armv7-m/crtend.o
 *(.got.plt)
 *(.got)
 *(.shdata)
 *(.data .data.* .gnu.linkonce.d.*)
 .data          0x1fff80cc        0x4 .\CortexM3\ARM_GCC_541\Debug\Cm3Start.o
 .data          0x1fff80d0        0x8 .\CortexM3\ARM_GCC_541\Debug\Scope-CY8CKIT-59.a(CyDmac.o)
 .data          0x1fff80d8       0x10 .\CortexM3\ARM_GCC_541\Debug\Scope-CY8CKIT-59.a(CyLib.o)
                0x1fff80d8                cydelay_freq_hz
                0x1fff80dc                cydelay_freq_khz
                0x1fff80e0                cydelay_freq_mhz
                0x1fff80e4                cydelay_32k_ms
 .data          0x1fff80e8       0x1a .\CortexM3\ARM_GCC_541\Debug\Scope-CY8CKIT-59.a(USBUART_cdc.o)
                0x1fff80e8                USBUART_linesCoding
 .data          0x1fff8102        0x1 .\CortexM3\ARM_GCC_541\Debug\Scope-CY8CKIT-59.a(Amux_Trigger.o)
 .data          0x1fff8103        0x1 .\CortexM3\ARM_GCC_541\Debug\Scope-CY8CKIT-59.a(DMA_Channel_1_dma.o)
                0x1fff8103                DMA_Channel_1_DmaHandle
 .data          0x1fff8104        0x1 .\CortexM3\ARM_GCC_541\Debug\Scope-CY8CKIT-59.a(DMA_Channel_2_dma.o)
                0x1fff8104                DMA_Channel_2_DmaHandle
 .data          0x1fff8105        0x1 .\CortexM3\ARM_GCC_541\Debug\Scope-CY8CKIT-59.a(AMux_1.o)
 .data          0x1fff8106        0x1 .\CortexM3\ARM_GCC_541\Debug\Scope-CY8CKIT-59.a(AMux_2.o)
 .data          0x1fff8107        0x1 .\CortexM3\ARM_GCC_541\Debug\Scope-CY8CKIT-59.a(WaveB_DAC_Wave1_DMA_dma.o)
                0x1fff8107                WaveB_DAC_Wave1_DMA_DmaHandle
 .data          0x1fff8108        0x1 .\CortexM3\ARM_GCC_541\Debug\Scope-CY8CKIT-59.a(WaveB_DAC_Wave2_DMA_dma.o)
                0x1fff8108                WaveB_DAC_Wave2_DMA_DmaHandle
 .data          0x1fff8109        0x1 .\CortexM3\ARM_GCC_541\Debug\Scope-CY8CKIT-59.a(WaveA_DAC_Wave1_DMA_dma.o)
                0x1fff8109                WaveA_DAC_Wave1_DMA_DmaHandle
 .data          0x1fff810a        0x1 .\CortexM3\ARM_GCC_541\Debug\Scope-CY8CKIT-59.a(WaveA_DAC_Wave2_DMA_dma.o)
                0x1fff810a                WaveA_DAC_Wave2_DMA_DmaHandle
 *fill*         0x1fff810b        0x1 
 .data.impure_data
                0x1fff810c       0x60 c:/program files (x86)/cypress/psoc creator/4.4/psoc creator/import/gnu/arm/5.4.1/bin/../lib/gcc/arm-none-eabi/5.4.1/../../../../arm-none-eabi/lib/armv7-m\libg_nano.a(lib_a-impure.o)
 .data._impure_ptr
                0x1fff816c        0x4 c:/program files (x86)/cypress/psoc creator/4.4/psoc creator/import/gnu/arm/5.4.1/bin/../lib/gcc/arm-none-eabi/5.4.1/../../../../arm-none-eabi/lib/armv7-m\libg_nano.a(lib_a-impure.o)
                0x1fff816c                _impure_ptr
 .data.__ctype_ptr__
                0x1fff8170        0x4 c:/program files (x86)/cypress/psoc creator/4.4/psoc creator/import/gnu/arm/5.4.1/bin/../lib/gcc/arm-none-eabi/5.4.1/../../../../arm-none-eabi/lib/armv7-m\libg_nano.a(lib_a-ctype_.o)
                0x1fff8170                __ctype_ptr__
                0x1fff8178                . = ALIGN (0x8)
 *fill*         0x1fff8174        0x4 
 *(.ram)
                0x1fff8178                _edata = .

.igot.plt       0x1fff8178        0x0 load address 0x000092d8
 .igot.plt      0x1fff8178        0x0 c:/program files (x86)/cypress/psoc creator/4.4/psoc creator/import/gnu/arm/5.4.1/bin/../lib/gcc/arm-none-eabi/5.4.1/armv7-m/crtbegin.o

.bss            0x1fff8178     0x4228 load address 0x000092d8
                0x1fff8178                PROVIDE (__bss_start__, .)
 *(.shbss)
 *(.bss .bss.* .gnu.linkonce.b.*)
 .bss           0x1fff8178       0x1c c:/program files (x86)/cypress/psoc creator/4.4/psoc creator/import/gnu/arm/5.4.1/bin/../lib/gcc/arm-none-eabi/5.4.1/armv7-m/crtbegin.o
 .bss           0x1fff8194        0x4 .\CortexM3\ARM_GCC_541\Debug\main.o
                0x1fff8194                wavea_gain
                0x1fff8195                wavea_offset
                0x1fff8196                waveb_gain
                0x1fff8197                waveb_offset
 .bss           0x1fff8198        0x1 .\CortexM3\ARM_GCC_541\Debug\Scope-CY8CKIT-59.a(ADC_2.o)
                0x1fff8198                ADC_2_initVar
 .bss           0x1fff8199        0x1 .\CortexM3\ARM_GCC_541\Debug\Scope-CY8CKIT-59.a(ADC_1.o)
                0x1fff8199                ADC_1_initVar
 .bss           0x1fff819a        0x1 .\CortexM3\ARM_GCC_541\Debug\Scope-CY8CKIT-59.a(USBUART.o)
                0x1fff819a                USBUART_initVar
 .bss           0x1fff819b        0x1 .\CortexM3\ARM_GCC_541\Debug\Scope-CY8CKIT-59.a(USBUART_cdc.o)
 .bss           0x1fff819c        0x2 .\CortexM3\ARM_GCC_541\Debug\Scope-CY8CKIT-59.a(USBUART_std.o)
 .bss           0x1fff819e        0x1 .\CortexM3\ARM_GCC_541\Debug\Scope-CY8CKIT-59.a(Vtrigger.o)
                0x1fff819e                Vtrigger_initVar
 .bss           0x1fff819f        0x1 .\CortexM3\ARM_GCC_541\Debug\Scope-CY8CKIT-59.a(PWM_Sample_Buffer.o)
                0x1fff819f                PWM_Sample_Buffer_initVar
 .bss           0x1fff81a0        0x1 .\CortexM3\ARM_GCC_541\Debug\Scope-CY8CKIT-59.a(Trigger_Comp.o)
                0x1fff81a0                Trigger_Comp_initVar
 .bss           0x1fff81a1        0x1 .\CortexM3\ARM_GCC_541\Debug\Scope-CY8CKIT-59.a(PRS.o)
                0x1fff81a1                PRS_initVar
 .bss           0x1fff81a2        0x1 .\CortexM3\ARM_GCC_541\Debug\Scope-CY8CKIT-59.a(Digital_PWM.o)
                0x1fff81a2                Digital_PWM_initVar
 .bss           0x1fff81a3        0x1 .\CortexM3\ARM_GCC_541\Debug\Scope-CY8CKIT-59.a(ScopeA_Buf.o)
                0x1fff81a3                ScopeA_Buf_initVar
 .bss           0x1fff81a4        0x1 .\CortexM3\ARM_GCC_541\Debug\Scope-CY8CKIT-59.a(ScopeB_Buf.o)
                0x1fff81a4                ScopeB_Buf_initVar
 .bss           0x1fff81a5        0x5 .\CortexM3\ARM_GCC_541\Debug\Scope-CY8CKIT-59.a(WaveB_DAC.o)
                0x1fff81a5                WaveB_DAC_initVar
 .bss           0x1fff81aa        0x1 .\CortexM3\ARM_GCC_541\Debug\Scope-CY8CKIT-59.a(WaveB_Buf.o)
                0x1fff81aa                WaveB_Buf_initVar
 .bss           0x1fff81ab        0x1 .\CortexM3\ARM_GCC_541\Debug\Scope-CY8CKIT-59.a(AuxDAC_1.o)
                0x1fff81ab                AuxDAC_1_initVar
 .bss           0x1fff81ac        0x1 .\CortexM3\ARM_GCC_541\Debug\Scope-CY8CKIT-59.a(AuxDAC_Buf.o)
                0x1fff81ac                AuxDAC_Buf_initVar
 .bss           0x1fff81ad        0x5 .\CortexM3\ARM_GCC_541\Debug\Scope-CY8CKIT-59.a(WaveA_DAC.o)
                0x1fff81ad                WaveA_DAC_initVar
 .bss           0x1fff81b2        0x1 .\CortexM3\ARM_GCC_541\Debug\Scope-CY8CKIT-59.a(WaveA_Buf.o)
                0x1fff81b2                WaveA_Buf_initVar
 .bss           0x1fff81b3        0x1 .\CortexM3\ARM_GCC_541\Debug\Scope-CY8CKIT-59.a(ScopeC_Buf.o)
                0x1fff81b3                ScopeC_Buf_initVar
 .bss           0x1fff81b4        0x1 .\CortexM3\ARM_GCC_541\Debug\Scope-CY8CKIT-59.a(ScopeD_Buf.o)
                0x1fff81b4                ScopeD_Buf_initVar
 .bss           0x1fff81b5        0x1 .\CortexM3\ARM_GCC_541\Debug\Scope-CY8CKIT-59.a(VRef_Buf.o)
                0x1fff81b5                VRef_Buf_initVar
 *fill*         0x1fff81b6        0x2 
 .bss.__malloc_sbrk_start
                0x1fff81b8        0x4 c:/program files (x86)/cypress/psoc creator/4.4/psoc creator/import/gnu/arm/5.4.1/bin/../lib/gcc/arm-none-eabi/5.4.1/../../../../arm-none-eabi/lib/armv7-m\libg_nano.a(lib_a-nano-mallocr.o)
                0x1fff81b8                __malloc_sbrk_start
 .bss.__malloc_free_list
                0x1fff81bc        0x4 c:/program files (x86)/cypress/psoc creator/4.4/psoc creator/import/gnu/arm/5.4.1/bin/../lib/gcc/arm-none-eabi/5.4.1/../../../../arm-none-eabi/lib/armv7-m\libg_nano.a(lib_a-nano-mallocr.o)
                0x1fff81bc                __malloc_free_list
 *(COMMON)
 COMMON         0x1fff81c0     0x40e8 .\CortexM3\ARM_GCC_541\Debug\main.o
                0x1fff81c0                DMA_Channel_2_Chan
                0x1fff81c2                cCommandsReady
                0x1fff81c4                Channel_1_Data
                0x1fff89c4                preamp_a
                0x1fff89c6                iWrite
                0x1fff89c8                Digital_AutoUpdate
                0x1fff89cc                DMA_Channel_1_TD
                0x1fff89d0                Channel_2_Data
                0x1fff91d0                trigger_source
                0x1fff91d1                Noise_Adjusted
                0x1fff91d2                bCommandReady
                0x1fff91d4                szTempBuffer
                0x1fff9214                szCommandsBuffer
                0x1fffa214                WaveformA_Temp_Buffer
                0x1fffaa14                DMA_Channel_1_Chan
                0x1fffaa18                USB_Out_Buffer
                0x1fffaa58                preamp_b
                0x1fffaa59                cCharsReceived
                0x1fffaa5a                iRead
                0x1fffaa5c                preamp_trig
                0x1fffaa60                DMA_Channel_2_TD
                0x1fffaa64                WaveformB_Buffer
                0x1fffb264                WaveformB_Temp_Buffer
                0x1fffba64                WaveformA_Buffer
                0x1fffc264                Digital_Input_Status_Last
                0x1fffc268                szCommand
 COMMON         0x1fffc2a8        0xa .\CortexM3\ARM_GCC_541\Debug\Scope-CY8CKIT-59.a(ADC_2.o)
                0x1fffc2a8                ADC_2_shift
                0x1fffc2aa                ADC_2_countsPerVolt
                0x1fffc2ac                ADC_2_countsPer10Volt
                0x1fffc2b0                ADC_2_offset
 *fill*         0x1fffc2b2        0x2 
 COMMON         0x1fffc2b4        0xc .\CortexM3\ARM_GCC_541\Debug\Scope-CY8CKIT-59.a(ADC_1.o)
                0x1fffc2b4                ADC_1_offset
                0x1fffc2b6                ADC_1_shift
                0x1fffc2b8                ADC_1_countsPerVolt
                0x1fffc2bc                ADC_1_countsPer10Volt
 COMMON         0x1fffc2c0       0x18 .\CortexM3\ARM_GCC_541\Debug\Scope-CY8CKIT-59.a(USBUART_cdc.o)
                0x1fffc2c0                USBUART_linesChanged
                0x1fffc2c4                USBUART_cdcDataInEp
                0x1fffc2c8                USBUART_cdcCommInInterruptEp
                0x1fffc2cc                USBUART_cdcDataOutEp
                0x1fffc2d0                USBUART_serialStateBitmap
                0x1fffc2d4                USBUART_linesControlBitmap
 COMMON         0x1fffc2d8       0x9a .\CortexM3\ARM_GCC_541\Debug\Scope-CY8CKIT-59.a(USBUART_drv.o)
                0x1fffc2d8                USBUART_lastPacketSize
                0x1fffc2d9                USBUART_device
                0x1fffc2da                USBUART_transferByteCount
                0x1fffc2dc                USBUART_transferState
                0x1fffc2e0                USBUART_interfaceSettingLast
                0x1fffc2e4                USBUART_currentTD
                0x1fffc2f0                USBUART_interfaceNumber
                0x1fffc2f4                USBUART_interfaceClass
                0x1fffc2f8                USBUART_configurationChanged
                0x1fffc2f9                USBUART_ep0Mode
                0x1fffc2fa                USBUART_deviceAddress
                0x1fffc2fb                USBUART_configuration
                0x1fffc2fc                USBUART_ep0Count
                0x1fffc2fd                USBUART_deviceStatus
                0x1fffc300                USBUART_EP
                0x1fffc36c                USBUART_interfaceSetting
                0x1fffc36e                USBUART_ep0Toggle
                0x1fffc370                USBUART_interfaceStatus
 *fill*         0x1fffc372        0x2 
 COMMON         0x1fffc374       0x22 .\CortexM3\ARM_GCC_541\Debug\Scope-CY8CKIT-59.a(USBUART_descr.o)
                0x1fffc374                USBUART_idSerialNumberStringDescriptor
 *fill*         0x1fffc396        0x2 
 COMMON         0x1fffc398        0x4 c:/program files (x86)/cypress/psoc creator/4.4/psoc creator/import/gnu/arm/5.4.1/bin/../lib/gcc/arm-none-eabi/5.4.1/../../../../arm-none-eabi/lib/armv7-m\libg_nano.a(lib_a-reent.o)
                0x1fffc398                errno
                0x1fffc3a0                . = ALIGN (0x8)
 *fill*         0x1fffc39c        0x4 
 *(.ram.b)
                0x1fffc3a0                _end = .
                0x1fffc3a0                __end = .
                0x1fffc3a0                PROVIDE (end, .)
                0x1fffc3a0                PROVIDE (__bss_end__, .)
                0x00009228                __cy_region_init_ram = LOADADDR (.data)
                0x000000b0                __cy_region_init_size_ram = (_edata - ADDR (.data))
                0x00004228                __cy_region_zero_size_ram = (_end - _edata)

.heap           0x1fffc3a0       0x80 load address 0x000092d8
                0x1fffc3a0                . = _end
                0x1fffc420                . = (. + 0x80)
 *fill*         0x1fffc3a0       0x80 
                0x1fffc420                __cy_heap_limit = .

.stack          0x20007800      0x800
                0x20007800                __cy_stack_limit = .
                0x20008000                . = (. + 0x800)
 *fill*         0x20007800      0x800 
                0x00000001                ASSERT ((__cy_stack_limit >= __cy_heap_limit), region RAM overflowed with stack)
                0x00000000                cy_checksum_exclude_size = (CY_APPL_LOADABLE == 0x1)?SIZEOF (.cy_checksum_exclude):0x0
                0x00000001                ASSERT ((cy_checksum_exclude_size <= CY_CHECKSUM_EXCLUDE_SIZE), CY_BOOT: Section .cy_checksum_exclude size exceedes specified limit.)

.cyloadermeta
 *(.cyloadermeta)

.cyloadablemeta
 *(.cyloadablemeta)

.cyconfigecc    0x80000000      0x790
 *(.cyconfigecc)
 .cyconfigecc   0x80000000      0x790 .\CortexM3\ARM_GCC_541\Debug\cymetadata.o
                0x80000000                cy_meta_configecc

.cycustnvl      0x90000000        0x4
 *(.cycustnvl)
 .cycustnvl     0x90000000        0x4 .\CortexM3\ARM_GCC_541\Debug\cymetadata.o
                0x90000000                cy_meta_custnvl

.cywolatch      0x90100000        0x4
 *(.cywolatch)
 .cywolatch     0x90100000        0x4 .\CortexM3\ARM_GCC_541\Debug\cymetadata.o
                0x90100000                cy_meta_wonvl

.cyeeprom       0x90200000        0x0
 *(.cyeeprom)
                0x00000001                ASSERT ((. <= ((0x90200000 + ee_offset) + ee_size)), .cyeeprom data will not fit in EEPROM)

.cyflashprotect
                0x90400000      0x100
 *(.cyflashprotect)
 .cyflashprotect
                0x90400000      0x100 .\CortexM3\ARM_GCC_541\Debug\cymetadata.o
                0x90400000                cy_meta_flashprotect

.cymeta         0x90500000        0xc
 *(.cymeta)
 .cymeta        0x90500000        0xc .\CortexM3\ARM_GCC_541\Debug\cymetadata.o
                0x90500000                cy_metadata

.rel.dyn        0x000092d8        0x0 load address 0x9050000c
 .rel.iplt      0x000092d8        0x0 c:/program files (x86)/cypress/psoc creator/4.4/psoc creator/import/gnu/arm/5.4.1/bin/../lib/gcc/arm-none-eabi/5.4.1/armv7-m/crtbegin.o

.stab           0x00000000       0x6c
 *(.stab)
 .stab          0x00000000       0x24 c:/program files (x86)/cypress/psoc creator/4.4/psoc creator/import/gnu/arm/5.4.1/bin/../lib/gcc/arm-none-eabi/5.4.1/../../../../arm-none-eabi/lib/armv7-m\libnosys.a(close.o)
 .stab          0x00000024       0x18 c:/program files (x86)/cypress/psoc creator/4.4/psoc creator/import/gnu/arm/5.4.1/bin/../lib/gcc/arm-none-eabi/5.4.1/../../../../arm-none-eabi/lib/armv7-m\libnosys.a(lseek.o)
                                 0x24 (size before relaxing)
 .stab          0x0000003c       0x18 c:/program files (x86)/cypress/psoc creator/4.4/psoc creator/import/gnu/arm/5.4.1/bin/../lib/gcc/arm-none-eabi/5.4.1/../../../../arm-none-eabi/lib/armv7-m\libnosys.a(read.o)
                                 0x24 (size before relaxing)
 .stab          0x00000054       0x18 c:/program files (x86)/cypress/psoc creator/4.4/psoc creator/import/gnu/arm/5.4.1/bin/../lib/gcc/arm-none-eabi/5.4.1/../../../../arm-none-eabi/lib/armv7-m\libnosys.a(write.o)
                                 0x24 (size before relaxing)

.stabstr        0x00000000       0xdf
 *(.stabstr)
 .stabstr       0x00000000       0xdf c:/program files (x86)/cypress/psoc creator/4.4/psoc creator/import/gnu/arm/5.4.1/bin/../lib/gcc/arm-none-eabi/5.4.1/../../../../arm-none-eabi/lib/armv7-m\libnosys.a(close.o)

.debug
 *(.debug)

.line
 *(.line)

.debug_srcinfo
 *(.debug_srcinfo)

.debug_sfnames
 *(.debug_sfnames)

.debug_aranges  0x00000000     0x1638
 *(.debug_aranges)
 .debug_aranges
                0x00000000       0x50 .\CortexM3\ARM_GCC_541\Debug\main.o
 .debug_aranges
                0x00000050       0x90 .\CortexM3\ARM_GCC_541\Debug\cyfitter_cfg.o
 .debug_aranges
                0x000000e0       0x48 .\CortexM3\ARM_GCC_541\Debug\Cm3Start.o
 .debug_aranges
                0x00000128       0x18 .\CortexM3\ARM_GCC_541\Debug\cymetadata.o
 .debug_aranges
                0x00000140       0xd8 .\CortexM3\ARM_GCC_541\Debug\Scope-CY8CKIT-59.a(CyDmac.o)
 .debug_aranges
                0x00000218      0x2a0 .\CortexM3\ARM_GCC_541\Debug\Scope-CY8CKIT-59.a(CyLib.o)
 .debug_aranges
                0x000004b8       0x98 .\CortexM3\ARM_GCC_541\Debug\Scope-CY8CKIT-59.a(cyPm.o)
 .debug_aranges
                0x00000550       0x98 .\CortexM3\ARM_GCC_541\Debug\Scope-CY8CKIT-59.a(ADC_2.o)
 .debug_aranges
                0x000005e8       0x20 .\CortexM3\ARM_GCC_541\Debug\Scope-CY8CKIT-59.a(ADC_2_INT.o)
 .debug_aranges
                0x00000608       0x98 .\CortexM3\ARM_GCC_541\Debug\Scope-CY8CKIT-59.a(ADC_1.o)
 .debug_aranges
                0x000006a0       0x20 .\CortexM3\ARM_GCC_541\Debug\Scope-CY8CKIT-59.a(ADC_1_INT.o)
 .debug_aranges
                0x000006c0       0xc8 .\CortexM3\ARM_GCC_541\Debug\Scope-CY8CKIT-59.a(USBUART.o)
 .debug_aranges
                0x00000788       0xe8 .\CortexM3\ARM_GCC_541\Debug\Scope-CY8CKIT-59.a(USBUART_cdc.o)
 .debug_aranges
                0x00000870       0x98 .\CortexM3\ARM_GCC_541\Debug\Scope-CY8CKIT-59.a(USBUART_drv.o)
 .debug_aranges
                0x00000908       0x40 .\CortexM3\ARM_GCC_541\Debug\Scope-CY8CKIT-59.a(USBUART_episr.o)
 .debug_aranges
                0x00000948       0x40 .\CortexM3\ARM_GCC_541\Debug\Scope-CY8CKIT-59.a(USBUART_pm.o)
 .debug_aranges
                0x00000988       0x80 .\CortexM3\ARM_GCC_541\Debug\Scope-CY8CKIT-59.a(USBUART_std.o)
 .debug_aranges
                0x00000a08       0x20 .\CortexM3\ARM_GCC_541\Debug\Scope-CY8CKIT-59.a(USBUART_vnd.o)
 .debug_aranges
                0x00000a28       0x70 .\CortexM3\ARM_GCC_541\Debug\Scope-CY8CKIT-59.a(SampleClock.o)
 .debug_aranges
                0x00000a98       0x58 .\CortexM3\ARM_GCC_541\Debug\Scope-CY8CKIT-59.a(Vtrigger.o)
 .debug_aranges
                0x00000af0       0x30 .\CortexM3\ARM_GCC_541\Debug\Scope-CY8CKIT-59.a(Amux_Trigger.o)
 .debug_aranges
                0x00000b20       0x28 .\CortexM3\ARM_GCC_541\Debug\Scope-CY8CKIT-59.a(DMA_Channel_1_dma.o)
 .debug_aranges
                0x00000b48       0x28 .\CortexM3\ARM_GCC_541\Debug\Scope-CY8CKIT-59.a(DMA_Channel_2_dma.o)
 .debug_aranges
                0x00000b70       0x98 .\CortexM3\ARM_GCC_541\Debug\Scope-CY8CKIT-59.a(PWM_Sample_Buffer.o)
 .debug_aranges
                0x00000c08       0x48 .\CortexM3\ARM_GCC_541\Debug\Scope-CY8CKIT-59.a(USBUART_Dp.o)
 .debug_aranges
                0x00000c50       0x28 .\CortexM3\ARM_GCC_541\Debug\Scope-CY8CKIT-59.a(Trigger_Control.o)
 .debug_aranges
                0x00000c78       0x40 .\CortexM3\ARM_GCC_541\Debug\Scope-CY8CKIT-59.a(Trigger_Status.o)
 .debug_aranges
                0x00000cb8       0x70 .\CortexM3\ARM_GCC_541\Debug\Scope-CY8CKIT-59.a(Trigger_Comp.o)
 .debug_aranges
                0x00000d28       0x60 .\CortexM3\ARM_GCC_541\Debug\Scope-CY8CKIT-59.a(PRS.o)
 .debug_aranges
                0x00000d88       0x28 .\CortexM3\ARM_GCC_541\Debug\Scope-CY8CKIT-59.a(Wave_Control.o)
 .debug_aranges
                0x00000db0       0x28 .\CortexM3\ARM_GCC_541\Debug\Scope-CY8CKIT-59.a(Digital_Out_Control.o)
 .debug_aranges
                0x00000dd8       0x40 .\CortexM3\ARM_GCC_541\Debug\Scope-CY8CKIT-59.a(Digital_Input_Status.o)
 .debug_aranges
                0x00000e18       0x70 .\CortexM3\ARM_GCC_541\Debug\Scope-CY8CKIT-59.a(PWM_Clock.o)
 .debug_aranges
                0x00000e88       0xa8 .\CortexM3\ARM_GCC_541\Debug\Scope-CY8CKIT-59.a(Digital_PWM.o)
 .debug_aranges
                0x00000f30       0x48 .\CortexM3\ARM_GCC_541\Debug\Scope-CY8CKIT-59.a(ScopeA_Buf.o)
 .debug_aranges
                0x00000f78       0x48 .\CortexM3\ARM_GCC_541\Debug\Scope-CY8CKIT-59.a(ScopeB_Buf.o)
 .debug_aranges
                0x00000fc0       0x50 .\CortexM3\ARM_GCC_541\Debug\Scope-CY8CKIT-59.a(WaveB_DAC.o)
 .debug_aranges
                0x00001010       0x40 .\CortexM3\ARM_GCC_541\Debug\Scope-CY8CKIT-59.a(WaveB_Buf.o)
 .debug_aranges
                0x00001050       0x58 .\CortexM3\ARM_GCC_541\Debug\Scope-CY8CKIT-59.a(AuxDAC_1.o)
 .debug_aranges
                0x000010a8       0x30 .\CortexM3\ARM_GCC_541\Debug\Scope-CY8CKIT-59.a(AMux_1.o)
 .debug_aranges
                0x000010d8       0x40 .\CortexM3\ARM_GCC_541\Debug\Scope-CY8CKIT-59.a(AuxDAC_Buf.o)
 .debug_aranges
                0x00001118       0x50 .\CortexM3\ARM_GCC_541\Debug\Scope-CY8CKIT-59.a(WaveA_DAC.o)
 .debug_aranges
                0x00001168       0x40 .\CortexM3\ARM_GCC_541\Debug\Scope-CY8CKIT-59.a(WaveA_Buf.o)
 .debug_aranges
                0x000011a8       0x70 .\CortexM3\ARM_GCC_541\Debug\Scope-CY8CKIT-59.a(WaveA_Clock.o)
 .debug_aranges
                0x00001218       0x30 .\CortexM3\ARM_GCC_541\Debug\Scope-CY8CKIT-59.a(AMux_2.o)
 .debug_aranges
                0x00001248       0x48 .\CortexM3\ARM_GCC_541\Debug\Scope-CY8CKIT-59.a(ScopeC_Buf.o)
 .debug_aranges
                0x00001290       0x48 .\CortexM3\ARM_GCC_541\Debug\Scope-CY8CKIT-59.a(ScopeD_Buf.o)
 .debug_aranges
                0x000012d8       0x28 .\CortexM3\ARM_GCC_541\Debug\Scope-CY8CKIT-59.a(WaveB_DAC_Wave1_DMA_dma.o)
 .debug_aranges
                0x00001300       0x28 .\CortexM3\ARM_GCC_541\Debug\Scope-CY8CKIT-59.a(WaveB_DAC_Wave2_DMA_dma.o)
 .debug_aranges
                0x00001328       0x58 .\CortexM3\ARM_GCC_541\Debug\Scope-CY8CKIT-59.a(WaveB_DAC_VDAC8.o)
 .debug_aranges
                0x00001380       0x28 .\CortexM3\ARM_GCC_541\Debug\Scope-CY8CKIT-59.a(WaveA_DAC_Wave1_DMA_dma.o)
 .debug_aranges
                0x000013a8       0x28 .\CortexM3\ARM_GCC_541\Debug\Scope-CY8CKIT-59.a(WaveA_DAC_Wave2_DMA_dma.o)
 .debug_aranges
                0x000013d0       0x58 .\CortexM3\ARM_GCC_541\Debug\Scope-CY8CKIT-59.a(WaveA_DAC_VDAC8.o)
 .debug_aranges
                0x00001428       0x70 .\CortexM3\ARM_GCC_541\Debug\Scope-CY8CKIT-59.a(NoiseA_Clock.o)
 .debug_aranges
                0x00001498       0x40 .\CortexM3\ARM_GCC_541\Debug\Scope-CY8CKIT-59.a(VRef_Buf.o)
 .debug_aranges
                0x000014d8       0x20 .\CortexM3\ARM_GCC_541\Debug\Scope-CY8CKIT-59.a(CyBootAsmGnu.o)
 .debug_aranges
                0x000014f8       0x88 .\CortexM3\ARM_GCC_541\Debug\Scope-CY8CKIT-59.a(CyFlash.o)
 .debug_aranges
                0x00001580       0x80 .\CortexM3\ARM_GCC_541\Debug\Scope-CY8CKIT-59.a(CySpc.o)
 .debug_aranges
                0x00001600       0x20 .\CortexM3\ARM_GCC_541\Debug\Scope-CY8CKIT-59.a(USBUART_cls.o)
 .debug_aranges
                0x00001620       0x18 .\CortexM3\ARM_GCC_541\Debug\Scope-CY8CKIT-59.a(USBUART_descr.o)

.debug_pubnames
 *(.debug_pubnames)

.debug_info     0x00000000     0xa0c3
 *(.debug_info .gnu.linkonce.wi.*)
 .debug_info    0x00000000      0x555 .\CortexM3\ARM_GCC_541\Debug\main.o
 .debug_info    0x00000555      0x5ab .\CortexM3\ARM_GCC_541\Debug\cyfitter_cfg.o
 .debug_info    0x00000b00      0x32b .\CortexM3\ARM_GCC_541\Debug\Cm3Start.o
 .debug_info    0x00000e2b      0x139 .\CortexM3\ARM_GCC_541\Debug\cymetadata.o
 .debug_info    0x00000f64      0x8c0 .\CortexM3\ARM_GCC_541\Debug\Scope-CY8CKIT-59.a(CyDmac.o)
 .debug_info    0x00001824      0xe51 .\CortexM3\ARM_GCC_541\Debug\Scope-CY8CKIT-59.a(CyLib.o)
 .debug_info    0x00002675      0x57a .\CortexM3\ARM_GCC_541\Debug\Scope-CY8CKIT-59.a(cyPm.o)
 .debug_info    0x00002bef      0x45b .\CortexM3\ARM_GCC_541\Debug\Scope-CY8CKIT-59.a(ADC_2.o)
 .debug_info    0x0000304a       0x92 .\CortexM3\ARM_GCC_541\Debug\Scope-CY8CKIT-59.a(ADC_2_INT.o)
 .debug_info    0x000030dc      0x45b .\CortexM3\ARM_GCC_541\Debug\Scope-CY8CKIT-59.a(ADC_1.o)
 .debug_info    0x00003537       0x92 .\CortexM3\ARM_GCC_541\Debug\Scope-CY8CKIT-59.a(ADC_1_INT.o)
 .debug_info    0x000035c9      0x717 .\CortexM3\ARM_GCC_541\Debug\Scope-CY8CKIT-59.a(USBUART.o)
 .debug_info    0x00003ce0      0x924 .\CortexM3\ARM_GCC_541\Debug\Scope-CY8CKIT-59.a(USBUART_cdc.o)
 .debug_info    0x00004604      0x52d .\CortexM3\ARM_GCC_541\Debug\Scope-CY8CKIT-59.a(USBUART_drv.o)
 .debug_info    0x00004b31      0x23b .\CortexM3\ARM_GCC_541\Debug\Scope-CY8CKIT-59.a(USBUART_episr.o)
 .debug_info    0x00004d6c      0x18d .\CortexM3\ARM_GCC_541\Debug\Scope-CY8CKIT-59.a(USBUART_pm.o)
 .debug_info    0x00004ef9      0x961 .\CortexM3\ARM_GCC_541\Debug\Scope-CY8CKIT-59.a(USBUART_std.o)
 .debug_info    0x0000585a      0x1a9 .\CortexM3\ARM_GCC_541\Debug\Scope-CY8CKIT-59.a(USBUART_vnd.o)
 .debug_info    0x00005a03      0x25d .\CortexM3\ARM_GCC_541\Debug\Scope-CY8CKIT-59.a(SampleClock.o)
 .debug_info    0x00005c60      0x185 .\CortexM3\ARM_GCC_541\Debug\Scope-CY8CKIT-59.a(Vtrigger.o)
 .debug_info    0x00005de5       0xf7 .\CortexM3\ARM_GCC_541\Debug\Scope-CY8CKIT-59.a(Amux_Trigger.o)
 .debug_info    0x00005edc      0x11b .\CortexM3\ARM_GCC_541\Debug\Scope-CY8CKIT-59.a(DMA_Channel_1_dma.o)
 .debug_info    0x00005ff7      0x11b .\CortexM3\ARM_GCC_541\Debug\Scope-CY8CKIT-59.a(DMA_Channel_2_dma.o)
 .debug_info    0x00006112      0x2a7 .\CortexM3\ARM_GCC_541\Debug\Scope-CY8CKIT-59.a(PWM_Sample_Buffer.o)
 .debug_info    0x000063b9      0x171 .\CortexM3\ARM_GCC_541\Debug\Scope-CY8CKIT-59.a(USBUART_Dp.o)
 .debug_info    0x0000652a       0xd7 .\CortexM3\ARM_GCC_541\Debug\Scope-CY8CKIT-59.a(Trigger_Control.o)
 .debug_info    0x00006601      0x142 .\CortexM3\ARM_GCC_541\Debug\Scope-CY8CKIT-59.a(Trigger_Status.o)
 .debug_info    0x00006743      0x246 .\CortexM3\ARM_GCC_541\Debug\Scope-CY8CKIT-59.a(Trigger_Comp.o)
 .debug_info    0x00006989      0x205 .\CortexM3\ARM_GCC_541\Debug\Scope-CY8CKIT-59.a(PRS.o)
 .debug_info    0x00006b8e       0xd7 .\CortexM3\ARM_GCC_541\Debug\Scope-CY8CKIT-59.a(Wave_Control.o)
 .debug_info    0x00006c65       0xd7 .\CortexM3\ARM_GCC_541\Debug\Scope-CY8CKIT-59.a(Digital_Out_Control.o)
 .debug_info    0x00006d3c      0x142 .\CortexM3\ARM_GCC_541\Debug\Scope-CY8CKIT-59.a(Digital_Input_Status.o)
 .debug_info    0x00006e7e      0x25d .\CortexM3\ARM_GCC_541\Debug\Scope-CY8CKIT-59.a(PWM_Clock.o)
 .debug_info    0x000070db      0x2c6 .\CortexM3\ARM_GCC_541\Debug\Scope-CY8CKIT-59.a(Digital_PWM.o)
 .debug_info    0x000073a1      0x192 .\CortexM3\ARM_GCC_541\Debug\Scope-CY8CKIT-59.a(ScopeA_Buf.o)
 .debug_info    0x00007533      0x192 .\CortexM3\ARM_GCC_541\Debug\Scope-CY8CKIT-59.a(ScopeB_Buf.o)
 .debug_info    0x000076c5      0x258 .\CortexM3\ARM_GCC_541\Debug\Scope-CY8CKIT-59.a(WaveB_DAC.o)
 .debug_info    0x0000791d      0x125 .\CortexM3\ARM_GCC_541\Debug\Scope-CY8CKIT-59.a(WaveB_Buf.o)
 .debug_info    0x00007a42      0x185 .\CortexM3\ARM_GCC_541\Debug\Scope-CY8CKIT-59.a(AuxDAC_1.o)
 .debug_info    0x00007bc7      0x10a .\CortexM3\ARM_GCC_541\Debug\Scope-CY8CKIT-59.a(AMux_1.o)
 .debug_info    0x00007cd1      0x125 .\CortexM3\ARM_GCC_541\Debug\Scope-CY8CKIT-59.a(AuxDAC_Buf.o)
 .debug_info    0x00007df6      0x258 .\CortexM3\ARM_GCC_541\Debug\Scope-CY8CKIT-59.a(WaveA_DAC.o)
 .debug_info    0x0000804e      0x125 .\CortexM3\ARM_GCC_541\Debug\Scope-CY8CKIT-59.a(WaveA_Buf.o)
 .debug_info    0x00008173      0x25d .\CortexM3\ARM_GCC_541\Debug\Scope-CY8CKIT-59.a(WaveA_Clock.o)
 .debug_info    0x000083d0      0x10a .\CortexM3\ARM_GCC_541\Debug\Scope-CY8CKIT-59.a(AMux_2.o)
 .debug_info    0x000084da      0x192 .\CortexM3\ARM_GCC_541\Debug\Scope-CY8CKIT-59.a(ScopeC_Buf.o)
 .debug_info    0x0000866c      0x192 .\CortexM3\ARM_GCC_541\Debug\Scope-CY8CKIT-59.a(ScopeD_Buf.o)
 .debug_info    0x000087fe      0x11b .\CortexM3\ARM_GCC_541\Debug\Scope-CY8CKIT-59.a(WaveB_DAC_Wave1_DMA_dma.o)
 .debug_info    0x00008919      0x11b .\CortexM3\ARM_GCC_541\Debug\Scope-CY8CKIT-59.a(WaveB_DAC_Wave2_DMA_dma.o)
 .debug_info    0x00008a34      0x185 .\CortexM3\ARM_GCC_541\Debug\Scope-CY8CKIT-59.a(WaveB_DAC_VDAC8.o)
 .debug_info    0x00008bb9      0x11b .\CortexM3\ARM_GCC_541\Debug\Scope-CY8CKIT-59.a(WaveA_DAC_Wave1_DMA_dma.o)
 .debug_info    0x00008cd4      0x11b .\CortexM3\ARM_GCC_541\Debug\Scope-CY8CKIT-59.a(WaveA_DAC_Wave2_DMA_dma.o)
 .debug_info    0x00008def      0x185 .\CortexM3\ARM_GCC_541\Debug\Scope-CY8CKIT-59.a(WaveA_DAC_VDAC8.o)
 .debug_info    0x00008f74      0x25d .\CortexM3\ARM_GCC_541\Debug\Scope-CY8CKIT-59.a(NoiseA_Clock.o)
 .debug_info    0x000091d1      0x125 .\CortexM3\ARM_GCC_541\Debug\Scope-CY8CKIT-59.a(VRef_Buf.o)
 .debug_info    0x000092f6       0xab .\CortexM3\ARM_GCC_541\Debug\Scope-CY8CKIT-59.a(CyBootAsmGnu.o)
 .debug_info    0x000093a1      0x3b9 .\CortexM3\ARM_GCC_541\Debug\Scope-CY8CKIT-59.a(CyFlash.o)
 .debug_info    0x0000975a      0x4c0 .\CortexM3\ARM_GCC_541\Debug\Scope-CY8CKIT-59.a(CySpc.o)
 .debug_info    0x00009c1a      0x1c8 .\CortexM3\ARM_GCC_541\Debug\Scope-CY8CKIT-59.a(USBUART_cls.o)
 .debug_info    0x00009de2      0x2e1 .\CortexM3\ARM_GCC_541\Debug\Scope-CY8CKIT-59.a(USBUART_descr.o)

.debug_abbrev   0x00000000     0x385e
 *(.debug_abbrev)
 .debug_abbrev  0x00000000      0x162 .\CortexM3\ARM_GCC_541\Debug\main.o
 .debug_abbrev  0x00000162      0x1b0 .\CortexM3\ARM_GCC_541\Debug\cyfitter_cfg.o
 .debug_abbrev  0x00000312      0x1d6 .\CortexM3\ARM_GCC_541\Debug\Cm3Start.o
 .debug_abbrev  0x000004e8       0x77 .\CortexM3\ARM_GCC_541\Debug\cymetadata.o
 .debug_abbrev  0x0000055f      0x194 .\CortexM3\ARM_GCC_541\Debug\Scope-CY8CKIT-59.a(CyDmac.o)
 .debug_abbrev  0x000006f3      0x217 .\CortexM3\ARM_GCC_541\Debug\Scope-CY8CKIT-59.a(CyLib.o)
 .debug_abbrev  0x0000090a      0x161 .\CortexM3\ARM_GCC_541\Debug\Scope-CY8CKIT-59.a(cyPm.o)
 .debug_abbrev  0x00000a6b      0x15b .\CortexM3\ARM_GCC_541\Debug\Scope-CY8CKIT-59.a(ADC_2.o)
 .debug_abbrev  0x00000bc6       0x42 .\CortexM3\ARM_GCC_541\Debug\Scope-CY8CKIT-59.a(ADC_2_INT.o)
 .debug_abbrev  0x00000c08      0x15b .\CortexM3\ARM_GCC_541\Debug\Scope-CY8CKIT-59.a(ADC_1.o)
 .debug_abbrev  0x00000d63       0x42 .\CortexM3\ARM_GCC_541\Debug\Scope-CY8CKIT-59.a(ADC_1_INT.o)
 .debug_abbrev  0x00000da5      0x1f3 .\CortexM3\ARM_GCC_541\Debug\Scope-CY8CKIT-59.a(USBUART.o)
 .debug_abbrev  0x00000f98      0x233 .\CortexM3\ARM_GCC_541\Debug\Scope-CY8CKIT-59.a(USBUART_cdc.o)
 .debug_abbrev  0x000011cb      0x161 .\CortexM3\ARM_GCC_541\Debug\Scope-CY8CKIT-59.a(USBUART_drv.o)
 .debug_abbrev  0x0000132c       0xfd .\CortexM3\ARM_GCC_541\Debug\Scope-CY8CKIT-59.a(USBUART_episr.o)
 .debug_abbrev  0x00001429       0xd1 .\CortexM3\ARM_GCC_541\Debug\Scope-CY8CKIT-59.a(USBUART_pm.o)
 .debug_abbrev  0x000014fa      0x1c2 .\CortexM3\ARM_GCC_541\Debug\Scope-CY8CKIT-59.a(USBUART_std.o)
 .debug_abbrev  0x000016bc       0xc5 .\CortexM3\ARM_GCC_541\Debug\Scope-CY8CKIT-59.a(USBUART_vnd.o)
 .debug_abbrev  0x00001781      0x11d .\CortexM3\ARM_GCC_541\Debug\Scope-CY8CKIT-59.a(SampleClock.o)
 .debug_abbrev  0x0000189e       0xeb .\CortexM3\ARM_GCC_541\Debug\Scope-CY8CKIT-59.a(Vtrigger.o)
 .debug_abbrev  0x00001989       0x87 .\CortexM3\ARM_GCC_541\Debug\Scope-CY8CKIT-59.a(Amux_Trigger.o)
 .debug_abbrev  0x00001a10       0x8b .\CortexM3\ARM_GCC_541\Debug\Scope-CY8CKIT-59.a(DMA_Channel_1_dma.o)
 .debug_abbrev  0x00001a9b       0x8b .\CortexM3\ARM_GCC_541\Debug\Scope-CY8CKIT-59.a(DMA_Channel_2_dma.o)
 .debug_abbrev  0x00001b26      0x12e .\CortexM3\ARM_GCC_541\Debug\Scope-CY8CKIT-59.a(PWM_Sample_Buffer.o)
 .debug_abbrev  0x00001c54       0x90 .\CortexM3\ARM_GCC_541\Debug\Scope-CY8CKIT-59.a(USBUART_Dp.o)
 .debug_abbrev  0x00001ce4       0x81 .\CortexM3\ARM_GCC_541\Debug\Scope-CY8CKIT-59.a(Trigger_Control.o)
 .debug_abbrev  0x00001d65       0xaa .\CortexM3\ARM_GCC_541\Debug\Scope-CY8CKIT-59.a(Trigger_Status.o)
 .debug_abbrev  0x00001e0f      0x146 .\CortexM3\ARM_GCC_541\Debug\Scope-CY8CKIT-59.a(Trigger_Comp.o)
 .debug_abbrev  0x00001f55      0x123 .\CortexM3\ARM_GCC_541\Debug\Scope-CY8CKIT-59.a(PRS.o)
 .debug_abbrev  0x00002078       0x81 .\CortexM3\ARM_GCC_541\Debug\Scope-CY8CKIT-59.a(Wave_Control.o)
 .debug_abbrev  0x000020f9       0x81 .\CortexM3\ARM_GCC_541\Debug\Scope-CY8CKIT-59.a(Digital_Out_Control.o)
 .debug_abbrev  0x0000217a       0xaa .\CortexM3\ARM_GCC_541\Debug\Scope-CY8CKIT-59.a(Digital_Input_Status.o)
 .debug_abbrev  0x00002224      0x11d .\CortexM3\ARM_GCC_541\Debug\Scope-CY8CKIT-59.a(PWM_Clock.o)
 .debug_abbrev  0x00002341      0x12e .\CortexM3\ARM_GCC_541\Debug\Scope-CY8CKIT-59.a(Digital_PWM.o)
 .debug_abbrev  0x0000246f       0xd0 .\CortexM3\ARM_GCC_541\Debug\Scope-CY8CKIT-59.a(ScopeA_Buf.o)
 .debug_abbrev  0x0000253f       0xd0 .\CortexM3\ARM_GCC_541\Debug\Scope-CY8CKIT-59.a(ScopeB_Buf.o)
 .debug_abbrev  0x0000260f       0xe3 .\CortexM3\ARM_GCC_541\Debug\Scope-CY8CKIT-59.a(WaveB_DAC.o)
 .debug_abbrev  0x000026f2       0xa8 .\CortexM3\ARM_GCC_541\Debug\Scope-CY8CKIT-59.a(WaveB_Buf.o)
 .debug_abbrev  0x0000279a       0xeb .\CortexM3\ARM_GCC_541\Debug\Scope-CY8CKIT-59.a(AuxDAC_1.o)
 .debug_abbrev  0x00002885       0x6f .\CortexM3\ARM_GCC_541\Debug\Scope-CY8CKIT-59.a(AMux_1.o)
 .debug_abbrev  0x000028f4       0xa8 .\CortexM3\ARM_GCC_541\Debug\Scope-CY8CKIT-59.a(AuxDAC_Buf.o)
 .debug_abbrev  0x0000299c       0xe3 .\CortexM3\ARM_GCC_541\Debug\Scope-CY8CKIT-59.a(WaveA_DAC.o)
 .debug_abbrev  0x00002a7f       0xa8 .\CortexM3\ARM_GCC_541\Debug\Scope-CY8CKIT-59.a(WaveA_Buf.o)
 .debug_abbrev  0x00002b27      0x11d .\CortexM3\ARM_GCC_541\Debug\Scope-CY8CKIT-59.a(WaveA_Clock.o)
 .debug_abbrev  0x00002c44       0x6f .\CortexM3\ARM_GCC_541\Debug\Scope-CY8CKIT-59.a(AMux_2.o)
 .debug_abbrev  0x00002cb3       0xd0 .\CortexM3\ARM_GCC_541\Debug\Scope-CY8CKIT-59.a(ScopeC_Buf.o)
 .debug_abbrev  0x00002d83       0xd0 .\CortexM3\ARM_GCC_541\Debug\Scope-CY8CKIT-59.a(ScopeD_Buf.o)
 .debug_abbrev  0x00002e53       0x8b .\CortexM3\ARM_GCC_541\Debug\Scope-CY8CKIT-59.a(WaveB_DAC_Wave1_DMA_dma.o)
 .debug_abbrev  0x00002ede       0x8b .\CortexM3\ARM_GCC_541\Debug\Scope-CY8CKIT-59.a(WaveB_DAC_Wave2_DMA_dma.o)
 .debug_abbrev  0x00002f69       0xeb .\CortexM3\ARM_GCC_541\Debug\Scope-CY8CKIT-59.a(WaveB_DAC_VDAC8.o)
 .debug_abbrev  0x00003054       0x8b .\CortexM3\ARM_GCC_541\Debug\Scope-CY8CKIT-59.a(WaveA_DAC_Wave1_DMA_dma.o)
 .debug_abbrev  0x000030df       0x8b .\CortexM3\ARM_GCC_541\Debug\Scope-CY8CKIT-59.a(WaveA_DAC_Wave2_DMA_dma.o)
 .debug_abbrev  0x0000316a       0xeb .\CortexM3\ARM_GCC_541\Debug\Scope-CY8CKIT-59.a(WaveA_DAC_VDAC8.o)
 .debug_abbrev  0x00003255      0x11d .\CortexM3\ARM_GCC_541\Debug\Scope-CY8CKIT-59.a(NoiseA_Clock.o)
 .debug_abbrev  0x00003372       0xa8 .\CortexM3\ARM_GCC_541\Debug\Scope-CY8CKIT-59.a(VRef_Buf.o)
 .debug_abbrev  0x0000341a       0x14 .\CortexM3\ARM_GCC_541\Debug\Scope-CY8CKIT-59.a(CyBootAsmGnu.o)
 .debug_abbrev  0x0000342e      0x14b .\CortexM3\ARM_GCC_541\Debug\Scope-CY8CKIT-59.a(CyFlash.o)
 .debug_abbrev  0x00003579      0x16c .\CortexM3\ARM_GCC_541\Debug\Scope-CY8CKIT-59.a(CySpc.o)
 .debug_abbrev  0x000036e5       0xc5 .\CortexM3\ARM_GCC_541\Debug\Scope-CY8CKIT-59.a(USBUART_cls.o)
 .debug_abbrev  0x000037aa       0xb4 .\CortexM3\ARM_GCC_541\Debug\Scope-CY8CKIT-59.a(USBUART_descr.o)

.debug_line     0x00000000     0x5307
 *(.debug_line)
 .debug_line    0x00000000      0x48a .\CortexM3\ARM_GCC_541\Debug\main.o
 .debug_line    0x0000048a      0x29f .\CortexM3\ARM_GCC_541\Debug\cyfitter_cfg.o
 .debug_line    0x00000729      0x1db .\CortexM3\ARM_GCC_541\Debug\Cm3Start.o
 .debug_line    0x00000904      0x141 .\CortexM3\ARM_GCC_541\Debug\cymetadata.o
 .debug_line    0x00000a45      0x2b6 .\CortexM3\ARM_GCC_541\Debug\Scope-CY8CKIT-59.a(CyDmac.o)
 .debug_line    0x00000cfb      0x883 .\CortexM3\ARM_GCC_541\Debug\Scope-CY8CKIT-59.a(CyLib.o)
 .debug_line    0x0000157e      0x38e .\CortexM3\ARM_GCC_541\Debug\Scope-CY8CKIT-59.a(cyPm.o)
 .debug_line    0x0000190c      0x1e2 .\CortexM3\ARM_GCC_541\Debug\Scope-CY8CKIT-59.a(ADC_2.o)
 .debug_line    0x00001aee       0x55 .\CortexM3\ARM_GCC_541\Debug\Scope-CY8CKIT-59.a(ADC_2_INT.o)
 .debug_line    0x00001b43      0x1e2 .\CortexM3\ARM_GCC_541\Debug\Scope-CY8CKIT-59.a(ADC_1.o)
 .debug_line    0x00001d25       0x55 .\CortexM3\ARM_GCC_541\Debug\Scope-CY8CKIT-59.a(ADC_1_INT.o)
 .debug_line    0x00001d7a      0x307 .\CortexM3\ARM_GCC_541\Debug\Scope-CY8CKIT-59.a(USBUART.o)
 .debug_line    0x00002081      0x30c .\CortexM3\ARM_GCC_541\Debug\Scope-CY8CKIT-59.a(USBUART_cdc.o)
 .debug_line    0x0000238d      0x21f .\CortexM3\ARM_GCC_541\Debug\Scope-CY8CKIT-59.a(USBUART_drv.o)
 .debug_line    0x000025ac       0xf2 .\CortexM3\ARM_GCC_541\Debug\Scope-CY8CKIT-59.a(USBUART_episr.o)
 .debug_line    0x0000269e       0xe6 .\CortexM3\ARM_GCC_541\Debug\Scope-CY8CKIT-59.a(USBUART_pm.o)
 .debug_line    0x00002784      0x470 .\CortexM3\ARM_GCC_541\Debug\Scope-CY8CKIT-59.a(USBUART_std.o)
 .debug_line    0x00002bf4       0x8f .\CortexM3\ARM_GCC_541\Debug\Scope-CY8CKIT-59.a(USBUART_vnd.o)
 .debug_line    0x00002c83      0x1aa .\CortexM3\ARM_GCC_541\Debug\Scope-CY8CKIT-59.a(SampleClock.o)
 .debug_line    0x00002e2d       0xf1 .\CortexM3\ARM_GCC_541\Debug\Scope-CY8CKIT-59.a(Vtrigger.o)
 .debug_line    0x00002f1e       0xa1 .\CortexM3\ARM_GCC_541\Debug\Scope-CY8CKIT-59.a(Amux_Trigger.o)
 .debug_line    0x00002fbf       0x80 .\CortexM3\ARM_GCC_541\Debug\Scope-CY8CKIT-59.a(DMA_Channel_1_dma.o)
 .debug_line    0x0000303f       0x80 .\CortexM3\ARM_GCC_541\Debug\Scope-CY8CKIT-59.a(DMA_Channel_2_dma.o)
 .debug_line    0x000030bf      0x195 .\CortexM3\ARM_GCC_541\Debug\Scope-CY8CKIT-59.a(PWM_Sample_Buffer.o)
 .debug_line    0x00003254       0xbf .\CortexM3\ARM_GCC_541\Debug\Scope-CY8CKIT-59.a(USBUART_Dp.o)
 .debug_line    0x00003313       0x78 .\CortexM3\ARM_GCC_541\Debug\Scope-CY8CKIT-59.a(Trigger_Control.o)
 .debug_line    0x0000338b       0xb1 .\CortexM3\ARM_GCC_541\Debug\Scope-CY8CKIT-59.a(Trigger_Status.o)
 .debug_line    0x0000343c      0x174 .\CortexM3\ARM_GCC_541\Debug\Scope-CY8CKIT-59.a(Trigger_Comp.o)
 .debug_line    0x000035b0      0x10c .\CortexM3\ARM_GCC_541\Debug\Scope-CY8CKIT-59.a(PRS.o)
 .debug_line    0x000036bc       0x75 .\CortexM3\ARM_GCC_541\Debug\Scope-CY8CKIT-59.a(Wave_Control.o)
 .debug_line    0x00003731       0x7c .\CortexM3\ARM_GCC_541\Debug\Scope-CY8CKIT-59.a(Digital_Out_Control.o)
 .debug_line    0x000037ad       0xb7 .\CortexM3\ARM_GCC_541\Debug\Scope-CY8CKIT-59.a(Digital_Input_Status.o)
 .debug_line    0x00003864      0x1a8 .\CortexM3\ARM_GCC_541\Debug\Scope-CY8CKIT-59.a(PWM_Clock.o)
 .debug_line    0x00003a0c      0x1af .\CortexM3\ARM_GCC_541\Debug\Scope-CY8CKIT-59.a(Digital_PWM.o)
 .debug_line    0x00003bbb       0xda .\CortexM3\ARM_GCC_541\Debug\Scope-CY8CKIT-59.a(ScopeA_Buf.o)
 .debug_line    0x00003c95       0xda .\CortexM3\ARM_GCC_541\Debug\Scope-CY8CKIT-59.a(ScopeB_Buf.o)
 .debug_line    0x00003d6f       0xf1 .\CortexM3\ARM_GCC_541\Debug\Scope-CY8CKIT-59.a(WaveB_DAC.o)
 .debug_line    0x00003e60       0xb1 .\CortexM3\ARM_GCC_541\Debug\Scope-CY8CKIT-59.a(WaveB_Buf.o)
 .debug_line    0x00003f11       0xf1 .\CortexM3\ARM_GCC_541\Debug\Scope-CY8CKIT-59.a(AuxDAC_1.o)
 .debug_line    0x00004002       0x9b .\CortexM3\ARM_GCC_541\Debug\Scope-CY8CKIT-59.a(AMux_1.o)
 .debug_line    0x0000409d       0xb2 .\CortexM3\ARM_GCC_541\Debug\Scope-CY8CKIT-59.a(AuxDAC_Buf.o)
 .debug_line    0x0000414f       0xf1 .\CortexM3\ARM_GCC_541\Debug\Scope-CY8CKIT-59.a(WaveA_DAC.o)
 .debug_line    0x00004240       0xb1 .\CortexM3\ARM_GCC_541\Debug\Scope-CY8CKIT-59.a(WaveA_Buf.o)
 .debug_line    0x000042f1      0x1aa .\CortexM3\ARM_GCC_541\Debug\Scope-CY8CKIT-59.a(WaveA_Clock.o)
 .debug_line    0x0000449b       0x9b .\CortexM3\ARM_GCC_541\Debug\Scope-CY8CKIT-59.a(AMux_2.o)
 .debug_line    0x00004536       0xda .\CortexM3\ARM_GCC_541\Debug\Scope-CY8CKIT-59.a(ScopeC_Buf.o)
 .debug_line    0x00004610       0xda .\CortexM3\ARM_GCC_541\Debug\Scope-CY8CKIT-59.a(ScopeD_Buf.o)
 .debug_line    0x000046ea       0x86 .\CortexM3\ARM_GCC_541\Debug\Scope-CY8CKIT-59.a(WaveB_DAC_Wave1_DMA_dma.o)
 .debug_line    0x00004770       0x86 .\CortexM3\ARM_GCC_541\Debug\Scope-CY8CKIT-59.a(WaveB_DAC_Wave2_DMA_dma.o)
 .debug_line    0x000047f6       0xf7 .\CortexM3\ARM_GCC_541\Debug\Scope-CY8CKIT-59.a(WaveB_DAC_VDAC8.o)
 .debug_line    0x000048ed       0x86 .\CortexM3\ARM_GCC_541\Debug\Scope-CY8CKIT-59.a(WaveA_DAC_Wave1_DMA_dma.o)
 .debug_line    0x00004973       0x86 .\CortexM3\ARM_GCC_541\Debug\Scope-CY8CKIT-59.a(WaveA_DAC_Wave2_DMA_dma.o)
 .debug_line    0x000049f9       0xf7 .\CortexM3\ARM_GCC_541\Debug\Scope-CY8CKIT-59.a(WaveA_DAC_VDAC8.o)
 .debug_line    0x00004af0      0x1ab .\CortexM3\ARM_GCC_541\Debug\Scope-CY8CKIT-59.a(NoiseA_Clock.o)
 .debug_line    0x00004c9b       0xb0 .\CortexM3\ARM_GCC_541\Debug\Scope-CY8CKIT-59.a(VRef_Buf.o)
 .debug_line    0x00004d4b       0x66 .\CortexM3\ARM_GCC_541\Debug\Scope-CY8CKIT-59.a(CyBootAsmGnu.o)
 .debug_line    0x00004db1      0x22f .\CortexM3\ARM_GCC_541\Debug\Scope-CY8CKIT-59.a(CyFlash.o)
 .debug_line    0x00004fe0      0x231 .\CortexM3\ARM_GCC_541\Debug\Scope-CY8CKIT-59.a(CySpc.o)
 .debug_line    0x00005211       0x95 .\CortexM3\ARM_GCC_541\Debug\Scope-CY8CKIT-59.a(USBUART_cls.o)
 .debug_line    0x000052a6       0x61 .\CortexM3\ARM_GCC_541\Debug\Scope-CY8CKIT-59.a(USBUART_descr.o)

.debug_frame    0x00000000     0x5a40
 *(.debug_frame)
 .debug_frame   0x00000000      0x110 .\CortexM3\ARM_GCC_541\Debug\main.o
 .debug_frame   0x00000110      0x25c .\CortexM3\ARM_GCC_541\Debug\cyfitter_cfg.o
 .debug_frame   0x0000036c       0xd8 .\CortexM3\ARM_GCC_541\Debug\Cm3Start.o
 .debug_frame   0x00000444      0x3d0 .\CortexM3\ARM_GCC_541\Debug\Scope-CY8CKIT-59.a(CyDmac.o)
 .debug_frame   0x00000814      0xc0c .\CortexM3\ARM_GCC_541\Debug\Scope-CY8CKIT-59.a(CyLib.o)
 .debug_frame   0x00001420      0x234 .\CortexM3\ARM_GCC_541\Debug\Scope-CY8CKIT-59.a(cyPm.o)
 .debug_frame   0x00001654      0x274 .\CortexM3\ARM_GCC_541\Debug\Scope-CY8CKIT-59.a(ADC_2.o)
 .debug_frame   0x000018c8       0x34 .\CortexM3\ARM_GCC_541\Debug\Scope-CY8CKIT-59.a(ADC_2_INT.o)
 .debug_frame   0x000018fc      0x274 .\CortexM3\ARM_GCC_541\Debug\Scope-CY8CKIT-59.a(ADC_1.o)
 .debug_frame   0x00001b70       0x34 .\CortexM3\ARM_GCC_541\Debug\Scope-CY8CKIT-59.a(ADC_1_INT.o)
 .debug_frame   0x00001ba4      0x37c .\CortexM3\ARM_GCC_541\Debug\Scope-CY8CKIT-59.a(USBUART.o)
 .debug_frame   0x00001f20      0x3ec .\CortexM3\ARM_GCC_541\Debug\Scope-CY8CKIT-59.a(USBUART_cdc.o)
 .debug_frame   0x0000230c      0x23c .\CortexM3\ARM_GCC_541\Debug\Scope-CY8CKIT-59.a(USBUART_drv.o)
 .debug_frame   0x00002548       0xbc .\CortexM3\ARM_GCC_541\Debug\Scope-CY8CKIT-59.a(USBUART_episr.o)
 .debug_frame   0x00002604       0xbc .\CortexM3\ARM_GCC_541\Debug\Scope-CY8CKIT-59.a(USBUART_pm.o)
 .debug_frame   0x000026c0      0x224 .\CortexM3\ARM_GCC_541\Debug\Scope-CY8CKIT-59.a(USBUART_std.o)
 .debug_frame   0x000028e4       0x38 .\CortexM3\ARM_GCC_541\Debug\Scope-CY8CKIT-59.a(USBUART_vnd.o)
 .debug_frame   0x0000291c      0x1b4 .\CortexM3\ARM_GCC_541\Debug\Scope-CY8CKIT-59.a(SampleClock.o)
 .debug_frame   0x00002ad0      0x130 .\CortexM3\ARM_GCC_541\Debug\Scope-CY8CKIT-59.a(Vtrigger.o)
 .debug_frame   0x00002c00       0x7c .\CortexM3\ARM_GCC_541\Debug\Scope-CY8CKIT-59.a(Amux_Trigger.o)
 .debug_frame   0x00002c7c       0x58 .\CortexM3\ARM_GCC_541\Debug\Scope-CY8CKIT-59.a(DMA_Channel_1_dma.o)
 .debug_frame   0x00002cd4       0x58 .\CortexM3\ARM_GCC_541\Debug\Scope-CY8CKIT-59.a(DMA_Channel_2_dma.o)
 .debug_frame   0x00002d2c      0x25c .\CortexM3\ARM_GCC_541\Debug\Scope-CY8CKIT-59.a(PWM_Sample_Buffer.o)
 .debug_frame   0x00002f88       0xf4 .\CortexM3\ARM_GCC_541\Debug\Scope-CY8CKIT-59.a(USBUART_Dp.o)
 .debug_frame   0x0000307c       0x5c .\CortexM3\ARM_GCC_541\Debug\Scope-CY8CKIT-59.a(Trigger_Control.o)
 .debug_frame   0x000030d8       0xd0 .\CortexM3\ARM_GCC_541\Debug\Scope-CY8CKIT-59.a(Trigger_Status.o)
 .debug_frame   0x000031a8      0x19c .\CortexM3\ARM_GCC_541\Debug\Scope-CY8CKIT-59.a(Trigger_Comp.o)
 .debug_frame   0x00003344      0x150 .\CortexM3\ARM_GCC_541\Debug\Scope-CY8CKIT-59.a(PRS.o)
 .debug_frame   0x00003494       0x5c .\CortexM3\ARM_GCC_541\Debug\Scope-CY8CKIT-59.a(Wave_Control.o)
 .debug_frame   0x000034f0       0x5c .\CortexM3\ARM_GCC_541\Debug\Scope-CY8CKIT-59.a(Digital_Out_Control.o)
 .debug_frame   0x0000354c       0xd0 .\CortexM3\ARM_GCC_541\Debug\Scope-CY8CKIT-59.a(Digital_Input_Status.o)
 .debug_frame   0x0000361c      0x1b4 .\CortexM3\ARM_GCC_541\Debug\Scope-CY8CKIT-59.a(PWM_Clock.o)
 .debug_frame   0x000037d0      0x2a8 .\CortexM3\ARM_GCC_541\Debug\Scope-CY8CKIT-59.a(Digital_PWM.o)
 .debug_frame   0x00003a78       0xe0 .\CortexM3\ARM_GCC_541\Debug\Scope-CY8CKIT-59.a(ScopeA_Buf.o)
 .debug_frame   0x00003b58       0xe0 .\CortexM3\ARM_GCC_541\Debug\Scope-CY8CKIT-59.a(ScopeB_Buf.o)
 .debug_frame   0x00003c38       0xf8 .\CortexM3\ARM_GCC_541\Debug\Scope-CY8CKIT-59.a(WaveB_DAC.o)
 .debug_frame   0x00003d30       0xb8 .\CortexM3\ARM_GCC_541\Debug\Scope-CY8CKIT-59.a(WaveB_Buf.o)
 .debug_frame   0x00003de8      0x130 .\CortexM3\ARM_GCC_541\Debug\Scope-CY8CKIT-59.a(AuxDAC_1.o)
 .debug_frame   0x00003f18       0x88 .\CortexM3\ARM_GCC_541\Debug\Scope-CY8CKIT-59.a(AMux_1.o)
 .debug_frame   0x00003fa0       0xb8 .\CortexM3\ARM_GCC_541\Debug\Scope-CY8CKIT-59.a(AuxDAC_Buf.o)
 .debug_frame   0x00004058       0xf8 .\CortexM3\ARM_GCC_541\Debug\Scope-CY8CKIT-59.a(WaveA_DAC.o)
 .debug_frame   0x00004150       0xb8 .\CortexM3\ARM_GCC_541\Debug\Scope-CY8CKIT-59.a(WaveA_Buf.o)
 .debug_frame   0x00004208      0x1b4 .\CortexM3\ARM_GCC_541\Debug\Scope-CY8CKIT-59.a(WaveA_Clock.o)
 .debug_frame   0x000043bc       0x88 .\CortexM3\ARM_GCC_541\Debug\Scope-CY8CKIT-59.a(AMux_2.o)
 .debug_frame   0x00004444       0xe0 .\CortexM3\ARM_GCC_541\Debug\Scope-CY8CKIT-59.a(ScopeC_Buf.o)
 .debug_frame   0x00004524       0xe0 .\CortexM3\ARM_GCC_541\Debug\Scope-CY8CKIT-59.a(ScopeD_Buf.o)
 .debug_frame   0x00004604       0x58 .\CortexM3\ARM_GCC_541\Debug\Scope-CY8CKIT-59.a(WaveB_DAC_Wave1_DMA_dma.o)
 .debug_frame   0x0000465c       0x58 .\CortexM3\ARM_GCC_541\Debug\Scope-CY8CKIT-59.a(WaveB_DAC_Wave2_DMA_dma.o)
 .debug_frame   0x000046b4      0x130 .\CortexM3\ARM_GCC_541\Debug\Scope-CY8CKIT-59.a(WaveB_DAC_VDAC8.o)
 .debug_frame   0x000047e4       0x58 .\CortexM3\ARM_GCC_541\Debug\Scope-CY8CKIT-59.a(WaveA_DAC_Wave1_DMA_dma.o)
 .debug_frame   0x0000483c       0x58 .\CortexM3\ARM_GCC_541\Debug\Scope-CY8CKIT-59.a(WaveA_DAC_Wave2_DMA_dma.o)
 .debug_frame   0x00004894      0x130 .\CortexM3\ARM_GCC_541\Debug\Scope-CY8CKIT-59.a(WaveA_DAC_VDAC8.o)
 .debug_frame   0x000049c4      0x1b4 .\CortexM3\ARM_GCC_541\Debug\Scope-CY8CKIT-59.a(NoiseA_Clock.o)
 .debug_frame   0x00004b78       0xb8 .\CortexM3\ARM_GCC_541\Debug\Scope-CY8CKIT-59.a(VRef_Buf.o)
 .debug_frame   0x00004c30      0x238 .\CortexM3\ARM_GCC_541\Debug\Scope-CY8CKIT-59.a(CyFlash.o)
 .debug_frame   0x00004e68      0x228 .\CortexM3\ARM_GCC_541\Debug\Scope-CY8CKIT-59.a(CySpc.o)
 .debug_frame   0x00005090       0x38 .\CortexM3\ARM_GCC_541\Debug\Scope-CY8CKIT-59.a(USBUART_cls.o)
 .debug_frame   0x000050c8       0x44 c:/program files (x86)/cypress/psoc creator/4.4/psoc creator/import/gnu/arm/5.4.1/bin/../lib/gcc/arm-none-eabi/5.4.1/armv7-m\libgcc.a(_aeabi_ldivmod.o)
 .debug_frame   0x0000510c       0x38 c:/program files (x86)/cypress/psoc creator/4.4/psoc creator/import/gnu/arm/5.4.1/bin/../lib/gcc/arm-none-eabi/5.4.1/armv7-m\libgcc.a(_udivmoddi4.o)
 .debug_frame   0x00005144       0x20 c:/program files (x86)/cypress/psoc creator/4.4/psoc creator/import/gnu/arm/5.4.1/bin/../lib/gcc/arm-none-eabi/5.4.1/../../../../arm-none-eabi/lib/armv7-m\libg_nano.a(lib_a-errno.o)
 .debug_frame   0x00005164       0x28 c:/program files (x86)/cypress/psoc creator/4.4/psoc creator/import/gnu/arm/5.4.1/bin/../lib/gcc/arm-none-eabi/5.4.1/../../../../arm-none-eabi/lib/armv7-m\libg_nano.a(lib_a-exit.o)
 .debug_frame   0x0000518c       0x2c c:/program files (x86)/cypress/psoc creator/4.4/psoc creator/import/gnu/arm/5.4.1/bin/../lib/gcc/arm-none-eabi/5.4.1/../../../../arm-none-eabi/lib/armv7-m\libg_nano.a(lib_a-init.o)
 .debug_frame   0x000051b8       0x28 c:/program files (x86)/cypress/psoc creator/4.4/psoc creator/import/gnu/arm/5.4.1/bin/../lib/gcc/arm-none-eabi/5.4.1/../../../../arm-none-eabi/lib/armv7-m\libg_nano.a(lib_a-memcpy-stub.o)
 .debug_frame   0x000051e0       0x20 c:/program files (x86)/cypress/psoc creator/4.4/psoc creator/import/gnu/arm/5.4.1/bin/../lib/gcc/arm-none-eabi/5.4.1/../../../../arm-none-eabi/lib/armv7-m\libg_nano.a(lib_a-memset.o)
 .debug_frame   0x00005200       0x80 c:/program files (x86)/cypress/psoc creator/4.4/psoc creator/import/gnu/arm/5.4.1/bin/../lib/gcc/arm-none-eabi/5.4.1/../../../../arm-none-eabi/lib/armv7-m\libg_nano.a(lib_a-sscanf.o)
 .debug_frame   0x00005280       0x88 c:/program files (x86)/cypress/psoc creator/4.4/psoc creator/import/gnu/arm/5.4.1/bin/../lib/gcc/arm-none-eabi/5.4.1/../../../../arm-none-eabi/lib/armv7-m\libg_nano.a(lib_a-stdio.o)
 .debug_frame   0x00005308       0x38 c:/program files (x86)/cypress/psoc creator/4.4/psoc creator/import/gnu/arm/5.4.1/bin/../lib/gcc/arm-none-eabi/5.4.1/../../../../arm-none-eabi/lib/armv7-m\libg_nano.a(lib_a-strtok.o)
 .debug_frame   0x00005340       0x40 c:/program files (x86)/cypress/psoc creator/4.4/psoc creator/import/gnu/arm/5.4.1/bin/../lib/gcc/arm-none-eabi/5.4.1/../../../../arm-none-eabi/lib/armv7-m\libg_nano.a(lib_a-strtok_r.o)
 .debug_frame   0x00005380       0x2c c:/program files (x86)/cypress/psoc creator/4.4/psoc creator/import/gnu/arm/5.4.1/bin/../lib/gcc/arm-none-eabi/5.4.1/../../../../arm-none-eabi/lib/armv7-m\libg_nano.a(lib_a-writer.o)
 .debug_frame   0x000053ac       0x2c c:/program files (x86)/cypress/psoc creator/4.4/psoc creator/import/gnu/arm/5.4.1/bin/../lib/gcc/arm-none-eabi/5.4.1/../../../../arm-none-eabi/lib/armv7-m\libg_nano.a(lib_a-closer.o)
 .debug_frame   0x000053d8       0x2c c:/program files (x86)/cypress/psoc creator/4.4/psoc creator/import/gnu/arm/5.4.1/bin/../lib/gcc/arm-none-eabi/5.4.1/../../../../arm-none-eabi/lib/armv7-m\libg_nano.a(lib_a-lseekr.o)
 .debug_frame   0x00005404       0x30 c:/program files (x86)/cypress/psoc creator/4.4/psoc creator/import/gnu/arm/5.4.1/bin/../lib/gcc/arm-none-eabi/5.4.1/../../../../arm-none-eabi/lib/armv7-m\libg_nano.a(lib_a-malloc.o)
 .debug_frame   0x00005434       0x38 c:/program files (x86)/cypress/psoc creator/4.4/psoc creator/import/gnu/arm/5.4.1/bin/../lib/gcc/arm-none-eabi/5.4.1/../../../../arm-none-eabi/lib/armv7-m\libg_nano.a(lib_a-nano-freer.o)
 .debug_frame   0x0000546c       0x2c c:/program files (x86)/cypress/psoc creator/4.4/psoc creator/import/gnu/arm/5.4.1/bin/../lib/gcc/arm-none-eabi/5.4.1/../../../../arm-none-eabi/lib/armv7-m\libg_nano.a(lib_a-nano-mallocr.o)
 .debug_frame   0x00005498       0x74 c:/program files (x86)/cypress/psoc creator/4.4/psoc creator/import/gnu/arm/5.4.1/bin/../lib/gcc/arm-none-eabi/5.4.1/../../../../arm-none-eabi/lib/armv7-m\libg_nano.a(lib_a-nano-svfscanf.o)
 .debug_frame   0x0000550c       0x60 c:/program files (x86)/cypress/psoc creator/4.4/psoc creator/import/gnu/arm/5.4.1/bin/../lib/gcc/arm-none-eabi/5.4.1/../../../../arm-none-eabi/lib/armv7-m\libg_nano.a(lib_a-nano-vfscanf_i.o)
 .debug_frame   0x0000556c       0x2c c:/program files (x86)/cypress/psoc creator/4.4/psoc creator/import/gnu/arm/5.4.1/bin/../lib/gcc/arm-none-eabi/5.4.1/../../../../arm-none-eabi/lib/armv7-m\libg_nano.a(lib_a-readr.o)
 .debug_frame   0x00005598       0x5c c:/program files (x86)/cypress/psoc creator/4.4/psoc creator/import/gnu/arm/5.4.1/bin/../lib/gcc/arm-none-eabi/5.4.1/../../../../arm-none-eabi/lib/armv7-m\libg_nano.a(lib_a-reent.o)
 .debug_frame   0x000055f4       0x2c c:/program files (x86)/cypress/psoc creator/4.4/psoc creator/import/gnu/arm/5.4.1/bin/../lib/gcc/arm-none-eabi/5.4.1/../../../../arm-none-eabi/lib/armv7-m\libg_nano.a(lib_a-sbrkr.o)
 .debug_frame   0x00005620       0x2c c:/program files (x86)/cypress/psoc creator/4.4/psoc creator/import/gnu/arm/5.4.1/bin/../lib/gcc/arm-none-eabi/5.4.1/../../../../arm-none-eabi/lib/armv7-m\libg_nano.a(lib_a-sccl.o)
 .debug_frame   0x0000564c       0x44 c:/program files (x86)/cypress/psoc creator/4.4/psoc creator/import/gnu/arm/5.4.1/bin/../lib/gcc/arm-none-eabi/5.4.1/../../../../arm-none-eabi/lib/armv7-m\libg_nano.a(lib_a-strtol.o)
 .debug_frame   0x00005690       0x44 c:/program files (x86)/cypress/psoc creator/4.4/psoc creator/import/gnu/arm/5.4.1/bin/../lib/gcc/arm-none-eabi/5.4.1/../../../../arm-none-eabi/lib/armv7-m\libg_nano.a(lib_a-strtoul.o)
 .debug_frame   0x000056d4       0x60 c:/program files (x86)/cypress/psoc creator/4.4/psoc creator/import/gnu/arm/5.4.1/bin/../lib/gcc/arm-none-eabi/5.4.1/../../../../arm-none-eabi/lib/armv7-m\libg_nano.a(lib_a-ungetc.o)
 .debug_frame   0x00005734       0x68 c:/program files (x86)/cypress/psoc creator/4.4/psoc creator/import/gnu/arm/5.4.1/bin/../lib/gcc/arm-none-eabi/5.4.1/../../../../arm-none-eabi/lib/armv7-m\libg_nano.a(lib_a-fflush.o)
 .debug_frame   0x0000579c      0x11c c:/program files (x86)/cypress/psoc creator/4.4/psoc creator/import/gnu/arm/5.4.1/bin/../lib/gcc/arm-none-eabi/5.4.1/../../../../arm-none-eabi/lib/armv7-m\libg_nano.a(lib_a-findfp.o)
 .debug_frame   0x000058b8       0x54 c:/program files (x86)/cypress/psoc creator/4.4/psoc creator/import/gnu/arm/5.4.1/bin/../lib/gcc/arm-none-eabi/5.4.1/../../../../arm-none-eabi/lib/armv7-m\libg_nano.a(lib_a-fwalk.o)
 .debug_frame   0x0000590c       0x28 c:/program files (x86)/cypress/psoc creator/4.4/psoc creator/import/gnu/arm/5.4.1/bin/../lib/gcc/arm-none-eabi/5.4.1/../../../../arm-none-eabi/lib/armv7-m\libg_nano.a(lib_a-memchr-stub.o)
 .debug_frame   0x00005934       0x30 c:/program files (x86)/cypress/psoc creator/4.4/psoc creator/import/gnu/arm/5.4.1/bin/../lib/gcc/arm-none-eabi/5.4.1/../../../../arm-none-eabi/lib/armv7-m\libg_nano.a(lib_a-mlock.o)
 .debug_frame   0x00005964       0x3c c:/program files (x86)/cypress/psoc creator/4.4/psoc creator/import/gnu/arm/5.4.1/bin/../lib/gcc/arm-none-eabi/5.4.1/../../../../arm-none-eabi/lib/armv7-m\libg_nano.a(lib_a-nano-reallocr.o)
 .debug_frame   0x000059a0       0x20 c:/program files (x86)/cypress/psoc creator/4.4/psoc creator/import/gnu/arm/5.4.1/bin/../lib/gcc/arm-none-eabi/5.4.1/../../../../arm-none-eabi/lib/armv7-m\libg_nano.a(lib_a-nano-msizer.o)
 .debug_frame   0x000059c0       0x20 c:/program files (x86)/cypress/psoc creator/4.4/psoc creator/import/gnu/arm/5.4.1/bin/../lib/gcc/arm-none-eabi/5.4.1/../../../../arm-none-eabi/lib/armv7-m\libnosys.a(close.o)
 .debug_frame   0x000059e0       0x20 c:/program files (x86)/cypress/psoc creator/4.4/psoc creator/import/gnu/arm/5.4.1/bin/../lib/gcc/arm-none-eabi/5.4.1/../../../../arm-none-eabi/lib/armv7-m\libnosys.a(lseek.o)
 .debug_frame   0x00005a00       0x20 c:/program files (x86)/cypress/psoc creator/4.4/psoc creator/import/gnu/arm/5.4.1/bin/../lib/gcc/arm-none-eabi/5.4.1/../../../../arm-none-eabi/lib/armv7-m\libnosys.a(read.o)
 .debug_frame   0x00005a20       0x20 c:/program files (x86)/cypress/psoc creator/4.4/psoc creator/import/gnu/arm/5.4.1/bin/../lib/gcc/arm-none-eabi/5.4.1/../../../../arm-none-eabi/lib/armv7-m\libnosys.a(write.o)

.debug_str      0x00000000     0x4cbe
 *(.debug_str)
 .debug_str     0x00000000      0x415 .\CortexM3\ARM_GCC_541\Debug\main.o
                                0x481 (size before relaxing)
 .debug_str     0x00000415      0x22f .\CortexM3\ARM_GCC_541\Debug\cyfitter_cfg.o
                                0x3f8 (size before relaxing)
 .debug_str     0x00000644      0x11d .\CortexM3\ARM_GCC_541\Debug\Cm3Start.o
                                0x2f2 (size before relaxing)
 .debug_str     0x00000761       0x7f .\CortexM3\ARM_GCC_541\Debug\cymetadata.o
                                0x1ff (size before relaxing)
 .debug_str     0x000007e0      0x323 .\CortexM3\ARM_GCC_541\Debug\Scope-CY8CKIT-59.a(CyDmac.o)
                                0x538 (size before relaxing)
 .debug_str     0x00000b03      0x7d9 .\CortexM3\ARM_GCC_541\Debug\Scope-CY8CKIT-59.a(CyLib.o)
                                0xa05 (size before relaxing)
 .debug_str     0x000012dc      0x371 .\CortexM3\ARM_GCC_541\Debug\Scope-CY8CKIT-59.a(cyPm.o)
                                0x55e (size before relaxing)
 .debug_str     0x0000164d      0x1db .\CortexM3\ARM_GCC_541\Debug\Scope-CY8CKIT-59.a(ADC_2.o)
                                0x3d3 (size before relaxing)
 .debug_str     0x00001828       0x2d .\CortexM3\ARM_GCC_541\Debug\Scope-CY8CKIT-59.a(ADC_2_INT.o)
                                0x1ae (size before relaxing)
 .debug_str     0x00001855      0x17d .\CortexM3\ARM_GCC_541\Debug\Scope-CY8CKIT-59.a(ADC_1.o)
                                0x3d3 (size before relaxing)
 .debug_str     0x000019d2       0x2d .\CortexM3\ARM_GCC_541\Debug\Scope-CY8CKIT-59.a(ADC_1_INT.o)
                                0x1ae (size before relaxing)
 .debug_str     0x000019ff      0x410 .\CortexM3\ARM_GCC_541\Debug\Scope-CY8CKIT-59.a(USBUART.o)
                                0x606 (size before relaxing)
 .debug_str     0x00001e0f      0x4d2 .\CortexM3\ARM_GCC_541\Debug\Scope-CY8CKIT-59.a(USBUART_cdc.o)
                                0x735 (size before relaxing)
 .debug_str     0x000022e1      0x296 .\CortexM3\ARM_GCC_541\Debug\Scope-CY8CKIT-59.a(USBUART_drv.o)
                                0x615 (size before relaxing)
 .debug_str     0x00002577       0x80 .\CortexM3\ARM_GCC_541\Debug\Scope-CY8CKIT-59.a(USBUART_episr.o)
                                0x2e2 (size before relaxing)
 .debug_str     0x000025f7       0xac .\CortexM3\ARM_GCC_541\Debug\Scope-CY8CKIT-59.a(USBUART_pm.o)
                                0x286 (size before relaxing)
 .debug_str     0x000026a3      0x2b2 .\CortexM3\ARM_GCC_541\Debug\Scope-CY8CKIT-59.a(USBUART_std.o)
                                0x775 (size before relaxing)
 .debug_str     0x00002955       0x5f .\CortexM3\ARM_GCC_541\Debug\Scope-CY8CKIT-59.a(USBUART_vnd.o)
                                0x292 (size before relaxing)
 .debug_str     0x000029b4      0x192 .\CortexM3\ARM_GCC_541\Debug\Scope-CY8CKIT-59.a(SampleClock.o)
                                0x339 (size before relaxing)
 .debug_str     0x00002b46       0xc1 .\CortexM3\ARM_GCC_541\Debug\Scope-CY8CKIT-59.a(Vtrigger.o)
                                0x258 (size before relaxing)
 .debug_str     0x00002c07       0x8a .\CortexM3\ARM_GCC_541\Debug\Scope-CY8CKIT-59.a(Amux_Trigger.o)
                                0x219 (size before relaxing)
 .debug_str     0x00002c91       0xb3 .\CortexM3\ARM_GCC_541\Debug\Scope-CY8CKIT-59.a(DMA_Channel_1_dma.o)
                                0x256 (size before relaxing)
 .debug_str     0x00002d44       0x78 .\CortexM3\ARM_GCC_541\Debug\Scope-CY8CKIT-59.a(DMA_Channel_2_dma.o)
                                0x256 (size before relaxing)
 .debug_str     0x00002dbc      0x27b .\CortexM3\ARM_GCC_541\Debug\Scope-CY8CKIT-59.a(PWM_Sample_Buffer.o)
                                0x430 (size before relaxing)
 .debug_str     0x00003037       0xbe .\CortexM3\ARM_GCC_541\Debug\Scope-CY8CKIT-59.a(USBUART_Dp.o)
                                0x25c (size before relaxing)
 .debug_str     0x000030f5       0x54 .\CortexM3\ARM_GCC_541\Debug\Scope-CY8CKIT-59.a(Trigger_Control.o)
                                0x1e8 (size before relaxing)
 .debug_str     0x00003149       0xac .\CortexM3\ARM_GCC_541\Debug\Scope-CY8CKIT-59.a(Trigger_Status.o)
                                0x261 (size before relaxing)
 .debug_str     0x000031f5      0x182 .\CortexM3\ARM_GCC_541\Debug\Scope-CY8CKIT-59.a(Trigger_Comp.o)
                                0x337 (size before relaxing)
 .debug_str     0x00003377       0xcd .\CortexM3\ARM_GCC_541\Debug\Scope-CY8CKIT-59.a(PRS.o)
                                0x298 (size before relaxing)
 .debug_str     0x00003444       0x4b .\CortexM3\ARM_GCC_541\Debug\Scope-CY8CKIT-59.a(Wave_Control.o)
                                0x1df (size before relaxing)
 .debug_str     0x0000348f       0x60 .\CortexM3\ARM_GCC_541\Debug\Scope-CY8CKIT-59.a(Digital_Out_Control.o)
                                0x1f4 (size before relaxing)
 .debug_str     0x000034ef       0xd0 .\CortexM3\ARM_GCC_541\Debug\Scope-CY8CKIT-59.a(Digital_Input_Status.o)
                                0x285 (size before relaxing)
 .debug_str     0x000035bf      0x12f .\CortexM3\ARM_GCC_541\Debug\Scope-CY8CKIT-59.a(PWM_Clock.o)
                                0x321 (size before relaxing)
 .debug_str     0x000036ee      0x20c .\CortexM3\ARM_GCC_541\Debug\Scope-CY8CKIT-59.a(Digital_PWM.o)
                                0x3e6 (size before relaxing)
 .debug_str     0x000038fa       0xca .\CortexM3\ARM_GCC_541\Debug\Scope-CY8CKIT-59.a(ScopeA_Buf.o)
                                0x27c (size before relaxing)
 .debug_str     0x000039c4       0xca .\CortexM3\ARM_GCC_541\Debug\Scope-CY8CKIT-59.a(ScopeB_Buf.o)
                                0x27c (size before relaxing)
 .debug_str     0x00003a8e      0x159 .\CortexM3\ARM_GCC_541\Debug\Scope-CY8CKIT-59.a(WaveB_DAC.o)
                                0x303 (size before relaxing)
 .debug_str     0x00003be7       0x87 .\CortexM3\ARM_GCC_541\Debug\Scope-CY8CKIT-59.a(WaveB_Buf.o)
                                0x22e (size before relaxing)
 .debug_str     0x00003c6e       0xb5 .\CortexM3\ARM_GCC_541\Debug\Scope-CY8CKIT-59.a(AuxDAC_1.o)
                                0x258 (size before relaxing)
 .debug_str     0x00003d23       0x60 .\CortexM3\ARM_GCC_541\Debug\Scope-CY8CKIT-59.a(AMux_1.o)
                                0x1f4 (size before relaxing)
 .debug_str     0x00003d83       0x8e .\CortexM3\ARM_GCC_541\Debug\Scope-CY8CKIT-59.a(AuxDAC_Buf.o)
                                0x235 (size before relaxing)
 .debug_str     0x00003e11      0x11c .\CortexM3\ARM_GCC_541\Debug\Scope-CY8CKIT-59.a(WaveA_DAC.o)
                                0x303 (size before relaxing)
 .debug_str     0x00003f2d       0x87 .\CortexM3\ARM_GCC_541\Debug\Scope-CY8CKIT-59.a(WaveA_Buf.o)
                                0x22e (size before relaxing)
 .debug_str     0x00003fb4      0x147 .\CortexM3\ARM_GCC_541\Debug\Scope-CY8CKIT-59.a(WaveA_Clock.o)
                                0x339 (size before relaxing)
 .debug_str     0x000040fb       0x60 .\CortexM3\ARM_GCC_541\Debug\Scope-CY8CKIT-59.a(AMux_2.o)
                                0x1f4 (size before relaxing)
 .debug_str     0x0000415b       0xca .\CortexM3\ARM_GCC_541\Debug\Scope-CY8CKIT-59.a(ScopeC_Buf.o)
                                0x27c (size before relaxing)
 .debug_str     0x00004225       0xca .\CortexM3\ARM_GCC_541\Debug\Scope-CY8CKIT-59.a(ScopeD_Buf.o)
                                0x27c (size before relaxing)
 .debug_str     0x000042ef       0x90 .\CortexM3\ARM_GCC_541\Debug\Scope-CY8CKIT-59.a(WaveB_DAC_Wave1_DMA_dma.o)
                                0x26e (size before relaxing)
 .debug_str     0x0000437f       0x90 .\CortexM3\ARM_GCC_541\Debug\Scope-CY8CKIT-59.a(WaveB_DAC_Wave2_DMA_dma.o)
                                0x26e (size before relaxing)
 .debug_str     0x0000440f       0xfb .\CortexM3\ARM_GCC_541\Debug\Scope-CY8CKIT-59.a(WaveB_DAC_VDAC8.o)
                                0x29e (size before relaxing)
 .debug_str     0x0000450a       0x90 .\CortexM3\ARM_GCC_541\Debug\Scope-CY8CKIT-59.a(WaveA_DAC_Wave1_DMA_dma.o)
                                0x26e (size before relaxing)
 .debug_str     0x0000459a       0x90 .\CortexM3\ARM_GCC_541\Debug\Scope-CY8CKIT-59.a(WaveA_DAC_Wave2_DMA_dma.o)
                                0x26e (size before relaxing)
 .debug_str     0x0000462a       0xfb .\CortexM3\ARM_GCC_541\Debug\Scope-CY8CKIT-59.a(WaveA_DAC_VDAC8.o)
                                0x29e (size before relaxing)
 .debug_str     0x00004725      0x153 .\CortexM3\ARM_GCC_541\Debug\Scope-CY8CKIT-59.a(NoiseA_Clock.o)
                                0x345 (size before relaxing)
 .debug_str     0x00004878       0x80 .\CortexM3\ARM_GCC_541\Debug\Scope-CY8CKIT-59.a(VRef_Buf.o)
                                0x227 (size before relaxing)
 .debug_str     0x000048f8      0x156 .\CortexM3\ARM_GCC_541\Debug\Scope-CY8CKIT-59.a(CyFlash.o)
                                0x322 (size before relaxing)
 .debug_str     0x00004a4e      0x12d .\CortexM3\ARM_GCC_541\Debug\Scope-CY8CKIT-59.a(CySpc.o)
                                0x31c (size before relaxing)
 .debug_str     0x00004b7b       0x3f .\CortexM3\ARM_GCC_541\Debug\Scope-CY8CKIT-59.a(USBUART_cls.o)
                                0x2aa (size before relaxing)
 .debug_str     0x00004bba      0x104 .\CortexM3\ARM_GCC_541\Debug\Scope-CY8CKIT-59.a(USBUART_descr.o)
                                0x3ad (size before relaxing)

.debug_loc
 *(.debug_loc)

.debug_macinfo
 *(.debug_macinfo)

.debug_ranges   0x00000000     0x1258
 *(.debug_ranges)
 .debug_ranges  0x00000000       0x40 .\CortexM3\ARM_GCC_541\Debug\main.o
 .debug_ranges  0x00000040       0x80 .\CortexM3\ARM_GCC_541\Debug\cyfitter_cfg.o
 .debug_ranges  0x000000c0       0x38 .\CortexM3\ARM_GCC_541\Debug\Cm3Start.o
 .debug_ranges  0x000000f8       0xc8 .\CortexM3\ARM_GCC_541\Debug\Scope-CY8CKIT-59.a(CyDmac.o)
 .debug_ranges  0x000001c0      0x290 .\CortexM3\ARM_GCC_541\Debug\Scope-CY8CKIT-59.a(CyLib.o)
 .debug_ranges  0x00000450       0x88 .\CortexM3\ARM_GCC_541\Debug\Scope-CY8CKIT-59.a(cyPm.o)
 .debug_ranges  0x000004d8       0x88 .\CortexM3\ARM_GCC_541\Debug\Scope-CY8CKIT-59.a(ADC_2.o)
 .debug_ranges  0x00000560       0x10 .\CortexM3\ARM_GCC_541\Debug\Scope-CY8CKIT-59.a(ADC_2_INT.o)
 .debug_ranges  0x00000570       0x88 .\CortexM3\ARM_GCC_541\Debug\Scope-CY8CKIT-59.a(ADC_1.o)
 .debug_ranges  0x000005f8       0x10 .\CortexM3\ARM_GCC_541\Debug\Scope-CY8CKIT-59.a(ADC_1_INT.o)
 .debug_ranges  0x00000608       0xb8 .\CortexM3\ARM_GCC_541\Debug\Scope-CY8CKIT-59.a(USBUART.o)
 .debug_ranges  0x000006c0       0xd8 .\CortexM3\ARM_GCC_541\Debug\Scope-CY8CKIT-59.a(USBUART_cdc.o)
 .debug_ranges  0x00000798       0x88 .\CortexM3\ARM_GCC_541\Debug\Scope-CY8CKIT-59.a(USBUART_drv.o)
 .debug_ranges  0x00000820       0x30 .\CortexM3\ARM_GCC_541\Debug\Scope-CY8CKIT-59.a(USBUART_episr.o)
 .debug_ranges  0x00000850       0x30 .\CortexM3\ARM_GCC_541\Debug\Scope-CY8CKIT-59.a(USBUART_pm.o)
 .debug_ranges  0x00000880       0x70 .\CortexM3\ARM_GCC_541\Debug\Scope-CY8CKIT-59.a(USBUART_std.o)
 .debug_ranges  0x000008f0       0x10 .\CortexM3\ARM_GCC_541\Debug\Scope-CY8CKIT-59.a(USBUART_vnd.o)
 .debug_ranges  0x00000900       0x60 .\CortexM3\ARM_GCC_541\Debug\Scope-CY8CKIT-59.a(SampleClock.o)
 .debug_ranges  0x00000960       0x48 .\CortexM3\ARM_GCC_541\Debug\Scope-CY8CKIT-59.a(Vtrigger.o)
 .debug_ranges  0x000009a8       0x20 .\CortexM3\ARM_GCC_541\Debug\Scope-CY8CKIT-59.a(Amux_Trigger.o)
 .debug_ranges  0x000009c8       0x18 .\CortexM3\ARM_GCC_541\Debug\Scope-CY8CKIT-59.a(DMA_Channel_1_dma.o)
 .debug_ranges  0x000009e0       0x18 .\CortexM3\ARM_GCC_541\Debug\Scope-CY8CKIT-59.a(DMA_Channel_2_dma.o)
 .debug_ranges  0x000009f8       0x88 .\CortexM3\ARM_GCC_541\Debug\Scope-CY8CKIT-59.a(PWM_Sample_Buffer.o)
 .debug_ranges  0x00000a80       0x38 .\CortexM3\ARM_GCC_541\Debug\Scope-CY8CKIT-59.a(USBUART_Dp.o)
 .debug_ranges  0x00000ab8       0x18 .\CortexM3\ARM_GCC_541\Debug\Scope-CY8CKIT-59.a(Trigger_Control.o)
 .debug_ranges  0x00000ad0       0x30 .\CortexM3\ARM_GCC_541\Debug\Scope-CY8CKIT-59.a(Trigger_Status.o)
 .debug_ranges  0x00000b00       0x60 .\CortexM3\ARM_GCC_541\Debug\Scope-CY8CKIT-59.a(Trigger_Comp.o)
 .debug_ranges  0x00000b60       0x50 .\CortexM3\ARM_GCC_541\Debug\Scope-CY8CKIT-59.a(PRS.o)
 .debug_ranges  0x00000bb0       0x18 .\CortexM3\ARM_GCC_541\Debug\Scope-CY8CKIT-59.a(Wave_Control.o)
 .debug_ranges  0x00000bc8       0x18 .\CortexM3\ARM_GCC_541\Debug\Scope-CY8CKIT-59.a(Digital_Out_Control.o)
 .debug_ranges  0x00000be0       0x30 .\CortexM3\ARM_GCC_541\Debug\Scope-CY8CKIT-59.a(Digital_Input_Status.o)
 .debug_ranges  0x00000c10       0x60 .\CortexM3\ARM_GCC_541\Debug\Scope-CY8CKIT-59.a(PWM_Clock.o)
 .debug_ranges  0x00000c70       0x98 .\CortexM3\ARM_GCC_541\Debug\Scope-CY8CKIT-59.a(Digital_PWM.o)
 .debug_ranges  0x00000d08       0x38 .\CortexM3\ARM_GCC_541\Debug\Scope-CY8CKIT-59.a(ScopeA_Buf.o)
 .debug_ranges  0x00000d40       0x38 .\CortexM3\ARM_GCC_541\Debug\Scope-CY8CKIT-59.a(ScopeB_Buf.o)
 .debug_ranges  0x00000d78       0x40 .\CortexM3\ARM_GCC_541\Debug\Scope-CY8CKIT-59.a(WaveB_DAC.o)
 .debug_ranges  0x00000db8       0x30 .\CortexM3\ARM_GCC_541\Debug\Scope-CY8CKIT-59.a(WaveB_Buf.o)
 .debug_ranges  0x00000de8       0x48 .\CortexM3\ARM_GCC_541\Debug\Scope-CY8CKIT-59.a(AuxDAC_1.o)
 .debug_ranges  0x00000e30       0x20 .\CortexM3\ARM_GCC_541\Debug\Scope-CY8CKIT-59.a(AMux_1.o)
 .debug_ranges  0x00000e50       0x30 .\CortexM3\ARM_GCC_541\Debug\Scope-CY8CKIT-59.a(AuxDAC_Buf.o)
 .debug_ranges  0x00000e80       0x40 .\CortexM3\ARM_GCC_541\Debug\Scope-CY8CKIT-59.a(WaveA_DAC.o)
 .debug_ranges  0x00000ec0       0x30 .\CortexM3\ARM_GCC_541\Debug\Scope-CY8CKIT-59.a(WaveA_Buf.o)
 .debug_ranges  0x00000ef0       0x60 .\CortexM3\ARM_GCC_541\Debug\Scope-CY8CKIT-59.a(WaveA_Clock.o)
 .debug_ranges  0x00000f50       0x20 .\CortexM3\ARM_GCC_541\Debug\Scope-CY8CKIT-59.a(AMux_2.o)
 .debug_ranges  0x00000f70       0x38 .\CortexM3\ARM_GCC_541\Debug\Scope-CY8CKIT-59.a(ScopeC_Buf.o)
 .debug_ranges  0x00000fa8       0x38 .\CortexM3\ARM_GCC_541\Debug\Scope-CY8CKIT-59.a(ScopeD_Buf.o)
 .debug_ranges  0x00000fe0       0x18 .\CortexM3\ARM_GCC_541\Debug\Scope-CY8CKIT-59.a(WaveB_DAC_Wave1_DMA_dma.o)
 .debug_ranges  0x00000ff8       0x18 .\CortexM3\ARM_GCC_541\Debug\Scope-CY8CKIT-59.a(WaveB_DAC_Wave2_DMA_dma.o)
 .debug_ranges  0x00001010       0x48 .\CortexM3\ARM_GCC_541\Debug\Scope-CY8CKIT-59.a(WaveB_DAC_VDAC8.o)
 .debug_ranges  0x00001058       0x18 .\CortexM3\ARM_GCC_541\Debug\Scope-CY8CKIT-59.a(WaveA_DAC_Wave1_DMA_dma.o)
 .debug_ranges  0x00001070       0x18 .\CortexM3\ARM_GCC_541\Debug\Scope-CY8CKIT-59.a(WaveA_DAC_Wave2_DMA_dma.o)
 .debug_ranges  0x00001088       0x48 .\CortexM3\ARM_GCC_541\Debug\Scope-CY8CKIT-59.a(WaveA_DAC_VDAC8.o)
 .debug_ranges  0x000010d0       0x60 .\CortexM3\ARM_GCC_541\Debug\Scope-CY8CKIT-59.a(NoiseA_Clock.o)
 .debug_ranges  0x00001130       0x30 .\CortexM3\ARM_GCC_541\Debug\Scope-CY8CKIT-59.a(VRef_Buf.o)
 .debug_ranges  0x00001160       0x78 .\CortexM3\ARM_GCC_541\Debug\Scope-CY8CKIT-59.a(CyFlash.o)
 .debug_ranges  0x000011d8       0x70 .\CortexM3\ARM_GCC_541\Debug\Scope-CY8CKIT-59.a(CySpc.o)
 .debug_ranges  0x00001248       0x10 .\CortexM3\ARM_GCC_541\Debug\Scope-CY8CKIT-59.a(USBUART_cls.o)

.comment        0x00000000       0x6e
 .comment       0x00000000       0x6e .\CortexM3\ARM_GCC_541\Debug\main.o
                                 0x6f (size before relaxing)
 .comment       0x0000006e       0x6f .\CortexM3\ARM_GCC_541\Debug\cyfitter_cfg.o
 .comment       0x0000006e       0x6f .\CortexM3\ARM_GCC_541\Debug\Cm3Start.o
 .comment       0x0000006e       0x6f .\CortexM3\ARM_GCC_541\Debug\cymetadata.o
 .comment       0x0000006e       0x6f .\CortexM3\ARM_GCC_541\Debug\Scope-CY8CKIT-59.a(CyDmac.o)
 .comment       0x0000006e       0x6f .\CortexM3\ARM_GCC_541\Debug\Scope-CY8CKIT-59.a(CyLib.o)
 .comment       0x0000006e       0x6f .\CortexM3\ARM_GCC_541\Debug\Scope-CY8CKIT-59.a(cyPm.o)
 .comment       0x0000006e       0x6f .\CortexM3\ARM_GCC_541\Debug\Scope-CY8CKIT-59.a(ADC_2.o)
 .comment       0x0000006e       0x6f .\CortexM3\ARM_GCC_541\Debug\Scope-CY8CKIT-59.a(ADC_2_INT.o)
 .comment       0x0000006e       0x6f .\CortexM3\ARM_GCC_541\Debug\Scope-CY8CKIT-59.a(ADC_1.o)
 .comment       0x0000006e       0x6f .\CortexM3\ARM_GCC_541\Debug\Scope-CY8CKIT-59.a(ADC_1_INT.o)
 .comment       0x0000006e       0x6f .\CortexM3\ARM_GCC_541\Debug\Scope-CY8CKIT-59.a(USBUART.o)
 .comment       0x0000006e       0x6f .\CortexM3\ARM_GCC_541\Debug\Scope-CY8CKIT-59.a(USBUART_cdc.o)
 .comment       0x0000006e       0x6f .\CortexM3\ARM_GCC_541\Debug\Scope-CY8CKIT-59.a(USBUART_drv.o)
 .comment       0x0000006e       0x6f .\CortexM3\ARM_GCC_541\Debug\Scope-CY8CKIT-59.a(USBUART_episr.o)
 .comment       0x0000006e       0x6f .\CortexM3\ARM_GCC_541\Debug\Scope-CY8CKIT-59.a(USBUART_pm.o)
 .comment       0x0000006e       0x6f .\CortexM3\ARM_GCC_541\Debug\Scope-CY8CKIT-59.a(USBUART_std.o)
 .comment       0x0000006e       0x6f .\CortexM3\ARM_GCC_541\Debug\Scope-CY8CKIT-59.a(USBUART_vnd.o)
 .comment       0x0000006e       0x6f .\CortexM3\ARM_GCC_541\Debug\Scope-CY8CKIT-59.a(SampleClock.o)
 .comment       0x0000006e       0x6f .\CortexM3\ARM_GCC_541\Debug\Scope-CY8CKIT-59.a(Vtrigger.o)
 .comment       0x0000006e       0x6f .\CortexM3\ARM_GCC_541\Debug\Scope-CY8CKIT-59.a(Amux_Trigger.o)
 .comment       0x0000006e       0x6f .\CortexM3\ARM_GCC_541\Debug\Scope-CY8CKIT-59.a(DMA_Channel_1_dma.o)
 .comment       0x0000006e       0x6f .\CortexM3\ARM_GCC_541\Debug\Scope-CY8CKIT-59.a(DMA_Channel_2_dma.o)
 .comment       0x0000006e       0x6f .\CortexM3\ARM_GCC_541\Debug\Scope-CY8CKIT-59.a(PWM_Sample_Buffer.o)
 .comment       0x0000006e       0x6f .\CortexM3\ARM_GCC_541\Debug\Scope-CY8CKIT-59.a(USBUART_Dp.o)
 .comment       0x0000006e       0x6f .\CortexM3\ARM_GCC_541\Debug\Scope-CY8CKIT-59.a(Trigger_Control.o)
 .comment       0x0000006e       0x6f .\CortexM3\ARM_GCC_541\Debug\Scope-CY8CKIT-59.a(Trigger_Status.o)
 .comment       0x0000006e       0x6f .\CortexM3\ARM_GCC_541\Debug\Scope-CY8CKIT-59.a(Trigger_Comp.o)
 .comment       0x0000006e       0x6f .\CortexM3\ARM_GCC_541\Debug\Scope-CY8CKIT-59.a(PRS.o)
 .comment       0x0000006e       0x6f .\CortexM3\ARM_GCC_541\Debug\Scope-CY8CKIT-59.a(Wave_Control.o)
 .comment       0x0000006e       0x6f .\CortexM3\ARM_GCC_541\Debug\Scope-CY8CKIT-59.a(Digital_Out_Control.o)
 .comment       0x0000006e       0x6f .\CortexM3\ARM_GCC_541\Debug\Scope-CY8CKIT-59.a(Digital_Input_Status.o)
 .comment       0x0000006e       0x6f .\CortexM3\ARM_GCC_541\Debug\Scope-CY8CKIT-59.a(PWM_Clock.o)
 .comment       0x0000006e       0x6f .\CortexM3\ARM_GCC_541\Debug\Scope-CY8CKIT-59.a(Digital_PWM.o)
 .comment       0x0000006e       0x6f .\CortexM3\ARM_GCC_541\Debug\Scope-CY8CKIT-59.a(ScopeA_Buf.o)
 .comment       0x0000006e       0x6f .\CortexM3\ARM_GCC_541\Debug\Scope-CY8CKIT-59.a(ScopeB_Buf.o)
 .comment       0x0000006e       0x6f .\CortexM3\ARM_GCC_541\Debug\Scope-CY8CKIT-59.a(WaveB_DAC.o)
 .comment       0x0000006e       0x6f .\CortexM3\ARM_GCC_541\Debug\Scope-CY8CKIT-59.a(WaveB_Buf.o)
 .comment       0x0000006e       0x6f .\CortexM3\ARM_GCC_541\Debug\Scope-CY8CKIT-59.a(AuxDAC_1.o)
 .comment       0x0000006e       0x6f .\CortexM3\ARM_GCC_541\Debug\Scope-CY8CKIT-59.a(AMux_1.o)
 .comment       0x0000006e       0x6f .\CortexM3\ARM_GCC_541\Debug\Scope-CY8CKIT-59.a(AuxDAC_Buf.o)
 .comment       0x0000006e       0x6f .\CortexM3\ARM_GCC_541\Debug\Scope-CY8CKIT-59.a(WaveA_DAC.o)
 .comment       0x0000006e       0x6f .\CortexM3\ARM_GCC_541\Debug\Scope-CY8CKIT-59.a(WaveA_Buf.o)
 .comment       0x0000006e       0x6f .\CortexM3\ARM_GCC_541\Debug\Scope-CY8CKIT-59.a(WaveA_Clock.o)
 .comment       0x0000006e       0x6f .\CortexM3\ARM_GCC_541\Debug\Scope-CY8CKIT-59.a(AMux_2.o)
 .comment       0x0000006e       0x6f .\CortexM3\ARM_GCC_541\Debug\Scope-CY8CKIT-59.a(ScopeC_Buf.o)
 .comment       0x0000006e       0x6f .\CortexM3\ARM_GCC_541\Debug\Scope-CY8CKIT-59.a(ScopeD_Buf.o)
 .comment       0x0000006e       0x6f .\CortexM3\ARM_GCC_541\Debug\Scope-CY8CKIT-59.a(WaveB_DAC_Wave1_DMA_dma.o)
 .comment       0x0000006e       0x6f .\CortexM3\ARM_GCC_541\Debug\Scope-CY8CKIT-59.a(WaveB_DAC_Wave2_DMA_dma.o)
 .comment       0x0000006e       0x6f .\CortexM3\ARM_GCC_541\Debug\Scope-CY8CKIT-59.a(WaveB_DAC_VDAC8.o)
 .comment       0x0000006e       0x6f .\CortexM3\ARM_GCC_541\Debug\Scope-CY8CKIT-59.a(WaveA_DAC_Wave1_DMA_dma.o)
 .comment       0x0000006e       0x6f .\CortexM3\ARM_GCC_541\Debug\Scope-CY8CKIT-59.a(WaveA_DAC_Wave2_DMA_dma.o)
 .comment       0x0000006e       0x6f .\CortexM3\ARM_GCC_541\Debug\Scope-CY8CKIT-59.a(WaveA_DAC_VDAC8.o)
 .comment       0x0000006e       0x6f .\CortexM3\ARM_GCC_541\Debug\Scope-CY8CKIT-59.a(NoiseA_Clock.o)
 .comment       0x0000006e       0x6f .\CortexM3\ARM_GCC_541\Debug\Scope-CY8CKIT-59.a(VRef_Buf.o)
 .comment       0x0000006e       0x6f .\CortexM3\ARM_GCC_541\Debug\Scope-CY8CKIT-59.a(CyFlash.o)
 .comment       0x0000006e       0x6f .\CortexM3\ARM_GCC_541\Debug\Scope-CY8CKIT-59.a(CySpc.o)
 .comment       0x0000006e       0x6f .\CortexM3\ARM_GCC_541\Debug\Scope-CY8CKIT-59.a(USBUART_cls.o)
 .comment       0x0000006e       0x6f .\CortexM3\ARM_GCC_541\Debug\Scope-CY8CKIT-59.a(USBUART_descr.o)

.debug_weaknames
 *(.debug_weaknames)

.debug_funcnames
 *(.debug_funcnames)

.debug_typenames
 *(.debug_typenames)

.debug_varnames
 *(.debug_varnames)

.note.gnu.arm.ident
 *(.note.gnu.arm.ident)

.ARM.attributes
                0x00000000       0x29
 *(.ARM.attributes)
 .ARM.attributes
                0x00000000       0x1d c:/program files (x86)/cypress/psoc creator/4.4/psoc creator/import/gnu/arm/5.4.1/bin/../lib/gcc/arm-none-eabi/5.4.1/armv7-m/crti.o
 .ARM.attributes
                0x0000001d       0x2d c:/program files (x86)/cypress/psoc creator/4.4/psoc creator/import/gnu/arm/5.4.1/bin/../lib/gcc/arm-none-eabi/5.4.1/armv7-m/crtbegin.o
 .ARM.attributes
                0x0000004a       0x1b c:/program files (x86)/cypress/psoc creator/4.4/psoc creator/import/gnu/arm/5.4.1/bin/../lib/gcc/arm-none-eabi/5.4.1/../../../../arm-none-eabi/lib/armv7-m/crt0.o
 .ARM.attributes
                0x00000065       0x33 .\CortexM3\ARM_GCC_541\Debug\main.o
 .ARM.attributes
                0x00000098       0x33 .\CortexM3\ARM_GCC_541\Debug\cyfitter_cfg.o
 .ARM.attributes
                0x000000cb       0x33 .\CortexM3\ARM_GCC_541\Debug\Cm3Start.o
 .ARM.attributes
                0x000000fe       0x33 .\CortexM3\ARM_GCC_541\Debug\cymetadata.o
 .ARM.attributes
                0x00000131       0x33 .\CortexM3\ARM_GCC_541\Debug\Scope-CY8CKIT-59.a(CyDmac.o)
 .ARM.attributes
                0x00000164       0x33 .\CortexM3\ARM_GCC_541\Debug\Scope-CY8CKIT-59.a(CyLib.o)
 .ARM.attributes
                0x00000197       0x33 .\CortexM3\ARM_GCC_541\Debug\Scope-CY8CKIT-59.a(cyPm.o)
 .ARM.attributes
                0x000001ca       0x33 .\CortexM3\ARM_GCC_541\Debug\Scope-CY8CKIT-59.a(ADC_2.o)
 .ARM.attributes
                0x000001fd       0x33 .\CortexM3\ARM_GCC_541\Debug\Scope-CY8CKIT-59.a(ADC_2_INT.o)
 .ARM.attributes
                0x00000230       0x33 .\CortexM3\ARM_GCC_541\Debug\Scope-CY8CKIT-59.a(ADC_1.o)
 .ARM.attributes
                0x00000263       0x33 .\CortexM3\ARM_GCC_541\Debug\Scope-CY8CKIT-59.a(ADC_1_INT.o)
 .ARM.attributes
                0x00000296       0x33 .\CortexM3\ARM_GCC_541\Debug\Scope-CY8CKIT-59.a(USBUART.o)
 .ARM.attributes
                0x000002c9       0x33 .\CortexM3\ARM_GCC_541\Debug\Scope-CY8CKIT-59.a(USBUART_cdc.o)
 .ARM.attributes
                0x000002fc       0x33 .\CortexM3\ARM_GCC_541\Debug\Scope-CY8CKIT-59.a(USBUART_drv.o)
 .ARM.attributes
                0x0000032f       0x33 .\CortexM3\ARM_GCC_541\Debug\Scope-CY8CKIT-59.a(USBUART_episr.o)
 .ARM.attributes
                0x00000362       0x33 .\CortexM3\ARM_GCC_541\Debug\Scope-CY8CKIT-59.a(USBUART_pm.o)
 .ARM.attributes
                0x00000395       0x33 .\CortexM3\ARM_GCC_541\Debug\Scope-CY8CKIT-59.a(USBUART_std.o)
 .ARM.attributes
                0x000003c8       0x33 .\CortexM3\ARM_GCC_541\Debug\Scope-CY8CKIT-59.a(USBUART_vnd.o)
 .ARM.attributes
                0x000003fb       0x33 .\CortexM3\ARM_GCC_541\Debug\Scope-CY8CKIT-59.a(SampleClock.o)
 .ARM.attributes
                0x0000042e       0x33 .\CortexM3\ARM_GCC_541\Debug\Scope-CY8CKIT-59.a(Vtrigger.o)
 .ARM.attributes
                0x00000461       0x33 .\CortexM3\ARM_GCC_541\Debug\Scope-CY8CKIT-59.a(Amux_Trigger.o)
 .ARM.attributes
                0x00000494       0x33 .\CortexM3\ARM_GCC_541\Debug\Scope-CY8CKIT-59.a(DMA_Channel_1_dma.o)
 .ARM.attributes
                0x000004c7       0x33 .\CortexM3\ARM_GCC_541\Debug\Scope-CY8CKIT-59.a(DMA_Channel_2_dma.o)
 .ARM.attributes
                0x000004fa       0x33 .\CortexM3\ARM_GCC_541\Debug\Scope-CY8CKIT-59.a(PWM_Sample_Buffer.o)
 .ARM.attributes
                0x0000052d       0x33 .\CortexM3\ARM_GCC_541\Debug\Scope-CY8CKIT-59.a(USBUART_Dp.o)
 .ARM.attributes
                0x00000560       0x33 .\CortexM3\ARM_GCC_541\Debug\Scope-CY8CKIT-59.a(Trigger_Control.o)
 .ARM.attributes
                0x00000593       0x33 .\CortexM3\ARM_GCC_541\Debug\Scope-CY8CKIT-59.a(Trigger_Status.o)
 .ARM.attributes
                0x000005c6       0x33 .\CortexM3\ARM_GCC_541\Debug\Scope-CY8CKIT-59.a(Trigger_Comp.o)
 .ARM.attributes
                0x000005f9       0x33 .\CortexM3\ARM_GCC_541\Debug\Scope-CY8CKIT-59.a(PRS.o)
 .ARM.attributes
                0x0000062c       0x33 .\CortexM3\ARM_GCC_541\Debug\Scope-CY8CKIT-59.a(Wave_Control.o)
 .ARM.attributes
                0x0000065f       0x33 .\CortexM3\ARM_GCC_541\Debug\Scope-CY8CKIT-59.a(Digital_Out_Control.o)
 .ARM.attributes
                0x00000692       0x33 .\CortexM3\ARM_GCC_541\Debug\Scope-CY8CKIT-59.a(Digital_Input_Status.o)
 .ARM.attributes
                0x000006c5       0x33 .\CortexM3\ARM_GCC_541\Debug\Scope-CY8CKIT-59.a(PWM_Clock.o)
 .ARM.attributes
                0x000006f8       0x33 .\CortexM3\ARM_GCC_541\Debug\Scope-CY8CKIT-59.a(Digital_PWM.o)
 .ARM.attributes
                0x0000072b       0x33 .\CortexM3\ARM_GCC_541\Debug\Scope-CY8CKIT-59.a(ScopeA_Buf.o)
 .ARM.attributes
                0x0000075e       0x33 .\CortexM3\ARM_GCC_541\Debug\Scope-CY8CKIT-59.a(ScopeB_Buf.o)
 .ARM.attributes
                0x00000791       0x33 .\CortexM3\ARM_GCC_541\Debug\Scope-CY8CKIT-59.a(WaveB_DAC.o)
 .ARM.attributes
                0x000007c4       0x33 .\CortexM3\ARM_GCC_541\Debug\Scope-CY8CKIT-59.a(WaveB_Buf.o)
 .ARM.attributes
                0x000007f7       0x33 .\CortexM3\ARM_GCC_541\Debug\Scope-CY8CKIT-59.a(AuxDAC_1.o)
 .ARM.attributes
                0x0000082a       0x33 .\CortexM3\ARM_GCC_541\Debug\Scope-CY8CKIT-59.a(AMux_1.o)
 .ARM.attributes
                0x0000085d       0x33 .\CortexM3\ARM_GCC_541\Debug\Scope-CY8CKIT-59.a(AuxDAC_Buf.o)
 .ARM.attributes
                0x00000890       0x33 .\CortexM3\ARM_GCC_541\Debug\Scope-CY8CKIT-59.a(WaveA_DAC.o)
 .ARM.attributes
                0x000008c3       0x33 .\CortexM3\ARM_GCC_541\Debug\Scope-CY8CKIT-59.a(WaveA_Buf.o)
 .ARM.attributes
                0x000008f6       0x33 .\CortexM3\ARM_GCC_541\Debug\Scope-CY8CKIT-59.a(WaveA_Clock.o)
 .ARM.attributes
                0x00000929       0x33 .\CortexM3\ARM_GCC_541\Debug\Scope-CY8CKIT-59.a(AMux_2.o)
 .ARM.attributes
                0x0000095c       0x33 .\CortexM3\ARM_GCC_541\Debug\Scope-CY8CKIT-59.a(ScopeC_Buf.o)
 .ARM.attributes
                0x0000098f       0x33 .\CortexM3\ARM_GCC_541\Debug\Scope-CY8CKIT-59.a(ScopeD_Buf.o)
 .ARM.attributes
                0x000009c2       0x33 .\CortexM3\ARM_GCC_541\Debug\Scope-CY8CKIT-59.a(WaveB_DAC_Wave1_DMA_dma.o)
 .ARM.attributes
                0x000009f5       0x33 .\CortexM3\ARM_GCC_541\Debug\Scope-CY8CKIT-59.a(WaveB_DAC_Wave2_DMA_dma.o)
 .ARM.attributes
                0x00000a28       0x33 .\CortexM3\ARM_GCC_541\Debug\Scope-CY8CKIT-59.a(WaveB_DAC_VDAC8.o)
 .ARM.attributes
                0x00000a5b       0x33 .\CortexM3\ARM_GCC_541\Debug\Scope-CY8CKIT-59.a(WaveA_DAC_Wave1_DMA_dma.o)
 .ARM.attributes
                0x00000a8e       0x33 .\CortexM3\ARM_GCC_541\Debug\Scope-CY8CKIT-59.a(WaveA_DAC_Wave2_DMA_dma.o)
 .ARM.attributes
                0x00000ac1       0x33 .\CortexM3\ARM_GCC_541\Debug\Scope-CY8CKIT-59.a(WaveA_DAC_VDAC8.o)
 .ARM.attributes
                0x00000af4       0x33 .\CortexM3\ARM_GCC_541\Debug\Scope-CY8CKIT-59.a(NoiseA_Clock.o)
 .ARM.attributes
                0x00000b27       0x33 .\CortexM3\ARM_GCC_541\Debug\Scope-CY8CKIT-59.a(VRef_Buf.o)
 .ARM.attributes
                0x00000b5a       0x21 .\CortexM3\ARM_GCC_541\Debug\Scope-CY8CKIT-59.a(CyBootAsmGnu.o)
 .ARM.attributes
                0x00000b7b       0x33 .\CortexM3\ARM_GCC_541\Debug\Scope-CY8CKIT-59.a(CyFlash.o)
 .ARM.attributes
                0x00000bae       0x33 .\CortexM3\ARM_GCC_541\Debug\Scope-CY8CKIT-59.a(CySpc.o)
 .ARM.attributes
                0x00000be1       0x33 .\CortexM3\ARM_GCC_541\Debug\Scope-CY8CKIT-59.a(USBUART_cls.o)
 .ARM.attributes
                0x00000c14       0x33 .\CortexM3\ARM_GCC_541\Debug\Scope-CY8CKIT-59.a(USBUART_descr.o)
 .ARM.attributes
                0x00000c47       0x1d c:/program files (x86)/cypress/psoc creator/4.4/psoc creator/import/gnu/arm/5.4.1/bin/../lib/gcc/arm-none-eabi/5.4.1/armv7-m\libgcc.a(_arm_addsubdf3.o)
 .ARM.attributes
                0x00000c64       0x1d c:/program files (x86)/cypress/psoc creator/4.4/psoc creator/import/gnu/arm/5.4.1/bin/../lib/gcc/arm-none-eabi/5.4.1/armv7-m\libgcc.a(_arm_muldivdf3.o)
 .ARM.attributes
                0x00000c81       0x1d c:/program files (x86)/cypress/psoc creator/4.4/psoc creator/import/gnu/arm/5.4.1/bin/../lib/gcc/arm-none-eabi/5.4.1/armv7-m\libgcc.a(_arm_fixunsdfsi.o)
 .ARM.attributes
                0x00000c9e       0x1d c:/program files (x86)/cypress/psoc creator/4.4/psoc creator/import/gnu/arm/5.4.1/bin/../lib/gcc/arm-none-eabi/5.4.1/armv7-m\libgcc.a(_arm_truncdfsf2.o)
 .ARM.attributes
                0x00000cbb       0x1d c:/program files (x86)/cypress/psoc creator/4.4/psoc creator/import/gnu/arm/5.4.1/bin/../lib/gcc/arm-none-eabi/5.4.1/armv7-m\libgcc.a(_arm_addsubsf3.o)
 .ARM.attributes
                0x00000cd8       0x1d c:/program files (x86)/cypress/psoc creator/4.4/psoc creator/import/gnu/arm/5.4.1/bin/../lib/gcc/arm-none-eabi/5.4.1/armv7-m\libgcc.a(_arm_muldivsf3.o)
 .ARM.attributes
                0x00000cf5       0x1d c:/program files (x86)/cypress/psoc creator/4.4/psoc creator/import/gnu/arm/5.4.1/bin/../lib/gcc/arm-none-eabi/5.4.1/armv7-m\libgcc.a(_arm_cmpsf2.o)
 .ARM.attributes
                0x00000d12       0x1d c:/program files (x86)/cypress/psoc creator/4.4/psoc creator/import/gnu/arm/5.4.1/bin/../lib/gcc/arm-none-eabi/5.4.1/armv7-m\libgcc.a(_arm_fixunssfsi.o)
 .ARM.attributes
                0x00000d2f       0x1d c:/program files (x86)/cypress/psoc creator/4.4/psoc creator/import/gnu/arm/5.4.1/bin/../lib/gcc/arm-none-eabi/5.4.1/armv7-m\libgcc.a(_aeabi_ldivmod.o)
 .ARM.attributes
                0x00000d4c       0x2d c:/program files (x86)/cypress/psoc creator/4.4/psoc creator/import/gnu/arm/5.4.1/bin/../lib/gcc/arm-none-eabi/5.4.1/armv7-m\libgcc.a(_udivmoddi4.o)
 .ARM.attributes
                0x00000d79       0x1d c:/program files (x86)/cypress/psoc creator/4.4/psoc creator/import/gnu/arm/5.4.1/bin/../lib/gcc/arm-none-eabi/5.4.1/armv7-m\libgcc.a(_dvmd_tls.o)
 .ARM.attributes
                0x00000d96       0x2d c:/program files (x86)/cypress/psoc creator/4.4/psoc creator/import/gnu/arm/5.4.1/bin/../lib/gcc/arm-none-eabi/5.4.1/../../../../arm-none-eabi/lib/armv7-m\libg_nano.a(lib_a-errno.o)
 .ARM.attributes
                0x00000dc3       0x2d c:/program files (x86)/cypress/psoc creator/4.4/psoc creator/import/gnu/arm/5.4.1/bin/../lib/gcc/arm-none-eabi/5.4.1/../../../../arm-none-eabi/lib/armv7-m\libg_nano.a(lib_a-exit.o)
 .ARM.attributes
                0x00000df0       0x2d c:/program files (x86)/cypress/psoc creator/4.4/psoc creator/import/gnu/arm/5.4.1/bin/../lib/gcc/arm-none-eabi/5.4.1/../../../../arm-none-eabi/lib/armv7-m\libg_nano.a(lib_a-impure.o)
 .ARM.attributes
                0x00000e1d       0x2d c:/program files (x86)/cypress/psoc creator/4.4/psoc creator/import/gnu/arm/5.4.1/bin/../lib/gcc/arm-none-eabi/5.4.1/../../../../arm-none-eabi/lib/armv7-m\libg_nano.a(lib_a-init.o)
 .ARM.attributes
                0x00000e4a       0x2d c:/program files (x86)/cypress/psoc creator/4.4/psoc creator/import/gnu/arm/5.4.1/bin/../lib/gcc/arm-none-eabi/5.4.1/../../../../arm-none-eabi/lib/armv7-m\libg_nano.a(lib_a-memcpy-stub.o)
 .ARM.attributes
                0x00000e77       0x2d c:/program files (x86)/cypress/psoc creator/4.4/psoc creator/import/gnu/arm/5.4.1/bin/../lib/gcc/arm-none-eabi/5.4.1/../../../../arm-none-eabi/lib/armv7-m\libg_nano.a(lib_a-memset.o)
 .ARM.attributes
                0x00000ea4       0x2d c:/program files (x86)/cypress/psoc creator/4.4/psoc creator/import/gnu/arm/5.4.1/bin/../lib/gcc/arm-none-eabi/5.4.1/../../../../arm-none-eabi/lib/armv7-m\libg_nano.a(lib_a-sscanf.o)
 .ARM.attributes
                0x00000ed1       0x2d c:/program files (x86)/cypress/psoc creator/4.4/psoc creator/import/gnu/arm/5.4.1/bin/../lib/gcc/arm-none-eabi/5.4.1/../../../../arm-none-eabi/lib/armv7-m\libg_nano.a(lib_a-stdio.o)
 .ARM.attributes
                0x00000efe       0x17 c:/program files (x86)/cypress/psoc creator/4.4/psoc creator/import/gnu/arm/5.4.1/bin/../lib/gcc/arm-none-eabi/5.4.1/../../../../arm-none-eabi/lib/armv7-m\libg_nano.a(lib_a-strlen.o)
 .ARM.attributes
                0x00000f15       0x2d c:/program files (x86)/cypress/psoc creator/4.4/psoc creator/import/gnu/arm/5.4.1/bin/../lib/gcc/arm-none-eabi/5.4.1/../../../../arm-none-eabi/lib/armv7-m\libg_nano.a(lib_a-strtok.o)
 .ARM.attributes
                0x00000f42       0x2d c:/program files (x86)/cypress/psoc creator/4.4/psoc creator/import/gnu/arm/5.4.1/bin/../lib/gcc/arm-none-eabi/5.4.1/../../../../arm-none-eabi/lib/armv7-m\libg_nano.a(lib_a-strtok_r.o)
 .ARM.attributes
                0x00000f6f       0x2d c:/program files (x86)/cypress/psoc creator/4.4/psoc creator/import/gnu/arm/5.4.1/bin/../lib/gcc/arm-none-eabi/5.4.1/../../../../arm-none-eabi/lib/armv7-m\libg_nano.a(lib_a-writer.o)
 .ARM.attributes
                0x00000f9c       0x2d c:/program files (x86)/cypress/psoc creator/4.4/psoc creator/import/gnu/arm/5.4.1/bin/../lib/gcc/arm-none-eabi/5.4.1/../../../../arm-none-eabi/lib/armv7-m\libg_nano.a(lib_a-closer.o)
 .ARM.attributes
                0x00000fc9       0x2d c:/program files (x86)/cypress/psoc creator/4.4/psoc creator/import/gnu/arm/5.4.1/bin/../lib/gcc/arm-none-eabi/5.4.1/../../../../arm-none-eabi/lib/armv7-m\libg_nano.a(lib_a-lseekr.o)
 .ARM.attributes
                0x00000ff6       0x2d c:/program files (x86)/cypress/psoc creator/4.4/psoc creator/import/gnu/arm/5.4.1/bin/../lib/gcc/arm-none-eabi/5.4.1/../../../../arm-none-eabi/lib/armv7-m\libg_nano.a(lib_a-malloc.o)
 .ARM.attributes
                0x00001023       0x2d c:/program files (x86)/cypress/psoc creator/4.4/psoc creator/import/gnu/arm/5.4.1/bin/../lib/gcc/arm-none-eabi/5.4.1/../../../../arm-none-eabi/lib/armv7-m\libg_nano.a(lib_a-nano-freer.o)
 .ARM.attributes
                0x00001050       0x2d c:/program files (x86)/cypress/psoc creator/4.4/psoc creator/import/gnu/arm/5.4.1/bin/../lib/gcc/arm-none-eabi/5.4.1/../../../../arm-none-eabi/lib/armv7-m\libg_nano.a(lib_a-nano-mallocr.o)
 .ARM.attributes
                0x0000107d       0x2d c:/program files (x86)/cypress/psoc creator/4.4/psoc creator/import/gnu/arm/5.4.1/bin/../lib/gcc/arm-none-eabi/5.4.1/../../../../arm-none-eabi/lib/armv7-m\libg_nano.a(lib_a-nano-svfscanf.o)
 .ARM.attributes
                0x000010aa       0x2d c:/program files (x86)/cypress/psoc creator/4.4/psoc creator/import/gnu/arm/5.4.1/bin/../lib/gcc/arm-none-eabi/5.4.1/../../../../arm-none-eabi/lib/armv7-m\libg_nano.a(lib_a-nano-vfscanf_i.o)
 .ARM.attributes
                0x000010d7       0x2d c:/program files (x86)/cypress/psoc creator/4.4/psoc creator/import/gnu/arm/5.4.1/bin/../lib/gcc/arm-none-eabi/5.4.1/../../../../arm-none-eabi/lib/armv7-m\libg_nano.a(lib_a-readr.o)
 .ARM.attributes
                0x00001104       0x2d c:/program files (x86)/cypress/psoc creator/4.4/psoc creator/import/gnu/arm/5.4.1/bin/../lib/gcc/arm-none-eabi/5.4.1/../../../../arm-none-eabi/lib/armv7-m\libg_nano.a(lib_a-reent.o)
 .ARM.attributes
                0x00001131       0x2d c:/program files (x86)/cypress/psoc creator/4.4/psoc creator/import/gnu/arm/5.4.1/bin/../lib/gcc/arm-none-eabi/5.4.1/../../../../arm-none-eabi/lib/armv7-m\libg_nano.a(lib_a-sbrkr.o)
 .ARM.attributes
                0x0000115e       0x2d c:/program files (x86)/cypress/psoc creator/4.4/psoc creator/import/gnu/arm/5.4.1/bin/../lib/gcc/arm-none-eabi/5.4.1/../../../../arm-none-eabi/lib/armv7-m\libg_nano.a(lib_a-sccl.o)
 .ARM.attributes
                0x0000118b       0x2d c:/program files (x86)/cypress/psoc creator/4.4/psoc creator/import/gnu/arm/5.4.1/bin/../lib/gcc/arm-none-eabi/5.4.1/../../../../arm-none-eabi/lib/armv7-m\libg_nano.a(lib_a-strtol.o)
 .ARM.attributes
                0x000011b8       0x2d c:/program files (x86)/cypress/psoc creator/4.4/psoc creator/import/gnu/arm/5.4.1/bin/../lib/gcc/arm-none-eabi/5.4.1/../../../../arm-none-eabi/lib/armv7-m\libg_nano.a(lib_a-strtoul.o)
 .ARM.attributes
                0x000011e5       0x2d c:/program files (x86)/cypress/psoc creator/4.4/psoc creator/import/gnu/arm/5.4.1/bin/../lib/gcc/arm-none-eabi/5.4.1/../../../../arm-none-eabi/lib/armv7-m\libg_nano.a(lib_a-ungetc.o)
 .ARM.attributes
                0x00001212       0x2d c:/program files (x86)/cypress/psoc creator/4.4/psoc creator/import/gnu/arm/5.4.1/bin/../lib/gcc/arm-none-eabi/5.4.1/../../../../arm-none-eabi/lib/armv7-m\libg_nano.a(lib_a-ctype_.o)
 .ARM.attributes
                0x0000123f       0x2d c:/program files (x86)/cypress/psoc creator/4.4/psoc creator/import/gnu/arm/5.4.1/bin/../lib/gcc/arm-none-eabi/5.4.1/../../../../arm-none-eabi/lib/armv7-m\libg_nano.a(lib_a-fflush.o)
 .ARM.attributes
                0x0000126c       0x2d c:/program files (x86)/cypress/psoc creator/4.4/psoc creator/import/gnu/arm/5.4.1/bin/../lib/gcc/arm-none-eabi/5.4.1/../../../../arm-none-eabi/lib/armv7-m\libg_nano.a(lib_a-findfp.o)
 .ARM.attributes
                0x00001299       0x2d c:/program files (x86)/cypress/psoc creator/4.4/psoc creator/import/gnu/arm/5.4.1/bin/../lib/gcc/arm-none-eabi/5.4.1/../../../../arm-none-eabi/lib/armv7-m\libg_nano.a(lib_a-fwalk.o)
 .ARM.attributes
                0x000012c6       0x2d c:/program files (x86)/cypress/psoc creator/4.4/psoc creator/import/gnu/arm/5.4.1/bin/../lib/gcc/arm-none-eabi/5.4.1/../../../../arm-none-eabi/lib/armv7-m\libg_nano.a(lib_a-memchr-stub.o)
 .ARM.attributes
                0x000012f3       0x2d c:/program files (x86)/cypress/psoc creator/4.4/psoc creator/import/gnu/arm/5.4.1/bin/../lib/gcc/arm-none-eabi/5.4.1/../../../../arm-none-eabi/lib/armv7-m\libg_nano.a(lib_a-mlock.o)
 .ARM.attributes
                0x00001320       0x2d c:/program files (x86)/cypress/psoc creator/4.4/psoc creator/import/gnu/arm/5.4.1/bin/../lib/gcc/arm-none-eabi/5.4.1/../../../../arm-none-eabi/lib/armv7-m\libg_nano.a(lib_a-nano-reallocr.o)
 .ARM.attributes
                0x0000134d       0x2d c:/program files (x86)/cypress/psoc creator/4.4/psoc creator/import/gnu/arm/5.4.1/bin/../lib/gcc/arm-none-eabi/5.4.1/../../../../arm-none-eabi/lib/armv7-m\libg_nano.a(lib_a-nano-msizer.o)
 .ARM.attributes
                0x0000137a       0x2d c:/program files (x86)/cypress/psoc creator/4.4/psoc creator/import/gnu/arm/5.4.1/bin/../lib/gcc/arm-none-eabi/5.4.1/armv7-m/crtend.o
 .ARM.attributes
                0x000013a7       0x1d c:/program files (x86)/cypress/psoc creator/4.4/psoc creator/import/gnu/arm/5.4.1/bin/../lib/gcc/arm-none-eabi/5.4.1/armv7-m/crtn.o
 .ARM.attributes
                0x000013c4       0x2d c:/program files (x86)/cypress/psoc creator/4.4/psoc creator/import/gnu/arm/5.4.1/bin/../lib/gcc/arm-none-eabi/5.4.1/../../../../arm-none-eabi/lib/armv7-m\libnosys.a(close.o)
 .ARM.attributes
                0x000013f1       0x2d c:/program files (x86)/cypress/psoc creator/4.4/psoc creator/import/gnu/arm/5.4.1/bin/../lib/gcc/arm-none-eabi/5.4.1/../../../../arm-none-eabi/lib/armv7-m\libnosys.a(lseek.o)
 .ARM.attributes
                0x0000141e       0x2d c:/program files (x86)/cypress/psoc creator/4.4/psoc creator/import/gnu/arm/5.4.1/bin/../lib/gcc/arm-none-eabi/5.4.1/../../../../arm-none-eabi/lib/armv7-m\libnosys.a(read.o)
 .ARM.attributes
                0x0000144b       0x2d c:/program files (x86)/cypress/psoc creator/4.4/psoc creator/import/gnu/arm/5.4.1/bin/../lib/gcc/arm-none-eabi/5.4.1/../../../../arm-none-eabi/lib/armv7-m\libnosys.a(write.o)

/DISCARD/
 *(.note.GNU-stack)
OUTPUT(C:\Users\merce\Documents\scope\CyScope\Twelve-bit-4-chan-59\ScopePSoC\Scope-CY8CKIT-59.cydsn\CortexM3\ARM_GCC_541\Debug\Scope-CY8CKIT-59.elf elf32-littlearm)
