ARM GAS  C:\Users\merce\AppData\Local\Temp\ccTdsbCf.s 			page 1


   1              		.syntax unified
   2              		.cpu cortex-m3
   3              		.fpu softvfp
   4              		.eabi_attribute 20, 1
   5              		.eabi_attribute 21, 1
   6              		.eabi_attribute 23, 3
   7              		.eabi_attribute 24, 1
   8              		.eabi_attribute 25, 1
   9              		.eabi_attribute 26, 1
  10              		.eabi_attribute 30, 6
  11              		.eabi_attribute 34, 1
  12              		.eabi_attribute 18, 4
  13              		.thumb
  14              		.syntax unified
  15              		.file	"PRS.c"
  16              		.text
  17              	.Ltext0:
  18              		.cfi_sections	.debug_frame
  19              		.global	PRS_initVar
  20              		.bss
  21              		.type	PRS_initVar, %object
  22              		.size	PRS_initVar, 1
  23              	PRS_initVar:
  24 0000 00       		.space	1
  25              		.global	PRS_backup
  26              		.data
  27              		.align	2
  28              		.type	PRS_backup, %object
  29              		.size	PRS_backup, 4
  30              	PRS_backup:
  31 0000 00       		.byte	0
  32 0001 00       		.space	1
  33 0002 FFFF     		.short	-1
  34              		.section	.text.PRS_Init,"ax",%progbits
  35              		.align	2
  36              		.global	PRS_Init
  37              		.thumb
  38              		.thumb_func
  39              		.type	PRS_Init, %function
  40              	PRS_Init:
  41              	.LFB0:
  42              		.file 1 "Generated_Source\\PSoC5\\PRS.c"
   1:Generated_Source\PSoC5/PRS.c **** /*******************************************************************************
   2:Generated_Source\PSoC5/PRS.c **** * File Name: PRS.c
   3:Generated_Source\PSoC5/PRS.c **** * Version 2.40
   4:Generated_Source\PSoC5/PRS.c **** *
   5:Generated_Source\PSoC5/PRS.c **** * Description:
   6:Generated_Source\PSoC5/PRS.c **** *  This file provides the source code to the API for the PRS component
   7:Generated_Source\PSoC5/PRS.c **** *
   8:Generated_Source\PSoC5/PRS.c **** * Note:
   9:Generated_Source\PSoC5/PRS.c **** *  None
  10:Generated_Source\PSoC5/PRS.c **** *
  11:Generated_Source\PSoC5/PRS.c **** ********************************************************************************
  12:Generated_Source\PSoC5/PRS.c **** * Copyright 2008-2013, Cypress Semiconductor Corporation.  All rights reserved.
  13:Generated_Source\PSoC5/PRS.c **** * You may use this file only in accordance with the license, terms, conditions,
  14:Generated_Source\PSoC5/PRS.c **** * disclaimers, and limitations in the end user license agreement accompanying
  15:Generated_Source\PSoC5/PRS.c **** * the software package with which this file was provided.
ARM GAS  C:\Users\merce\AppData\Local\Temp\ccTdsbCf.s 			page 2


  16:Generated_Source\PSoC5/PRS.c **** *******************************************************************************/
  17:Generated_Source\PSoC5/PRS.c **** 
  18:Generated_Source\PSoC5/PRS.c **** #include "PRS.h"
  19:Generated_Source\PSoC5/PRS.c **** 
  20:Generated_Source\PSoC5/PRS.c **** uint8 PRS_initVar = 0u;
  21:Generated_Source\PSoC5/PRS.c **** 
  22:Generated_Source\PSoC5/PRS.c **** PRS_BACKUP_STRUCT PRS_backup =
  23:Generated_Source\PSoC5/PRS.c **** {
  24:Generated_Source\PSoC5/PRS.c ****     0x00u, /* enableState; */
  25:Generated_Source\PSoC5/PRS.c **** 
  26:Generated_Source\PSoC5/PRS.c ****     #if (PRS_WAKEUP_BEHAVIOUR == PRS__RESUMEWORK)
  27:Generated_Source\PSoC5/PRS.c ****         /* Save dff register for time mult */
  28:Generated_Source\PSoC5/PRS.c ****         #if (PRS_TIME_MULTIPLEXING_ENABLE)
  29:Generated_Source\PSoC5/PRS.c ****             PRS_INIT_STATE, /* dffStatus; */
  30:Generated_Source\PSoC5/PRS.c ****         #endif  /* End PRS_TIME_MULTIPLEXING_ENABLE */
  31:Generated_Source\PSoC5/PRS.c **** 
  32:Generated_Source\PSoC5/PRS.c ****         /* Save A0 and A1 registers are none-retention */
  33:Generated_Source\PSoC5/PRS.c ****         #if(PRS_PRS_SIZE <= 32u)
  34:Generated_Source\PSoC5/PRS.c ****             PRS_DEFAULT_SEED, /* seed */
  35:Generated_Source\PSoC5/PRS.c **** 
  36:Generated_Source\PSoC5/PRS.c ****         #else
  37:Generated_Source\PSoC5/PRS.c ****             PRS_DEFAULT_SEED_UPPER, /* seedUpper; */
  38:Generated_Source\PSoC5/PRS.c ****             PRS_DEFAULT_SEED_LOWER, /* seedLower; */
  39:Generated_Source\PSoC5/PRS.c **** 
  40:Generated_Source\PSoC5/PRS.c ****         #endif  /* End (PRS_PRS_SIZE <= 32u) */
  41:Generated_Source\PSoC5/PRS.c **** 
  42:Generated_Source\PSoC5/PRS.c ****     #endif  /* End (PRS_WAKEUP_BEHAVIOUR == PRS__RESUMEWORK) */
  43:Generated_Source\PSoC5/PRS.c **** };
  44:Generated_Source\PSoC5/PRS.c **** 
  45:Generated_Source\PSoC5/PRS.c **** 
  46:Generated_Source\PSoC5/PRS.c **** /*******************************************************************************
  47:Generated_Source\PSoC5/PRS.c **** * Function Name: PRS_Init
  48:Generated_Source\PSoC5/PRS.c **** ********************************************************************************
  49:Generated_Source\PSoC5/PRS.c **** *
  50:Generated_Source\PSoC5/PRS.c **** * Summary:
  51:Generated_Source\PSoC5/PRS.c **** *  Initializes seed and polynomial registers with initial values.
  52:Generated_Source\PSoC5/PRS.c **** *
  53:Generated_Source\PSoC5/PRS.c **** * Parameters:
  54:Generated_Source\PSoC5/PRS.c **** *  void
  55:Generated_Source\PSoC5/PRS.c **** *
  56:Generated_Source\PSoC5/PRS.c **** * Return:
  57:Generated_Source\PSoC5/PRS.c **** *  void
  58:Generated_Source\PSoC5/PRS.c **** *
  59:Generated_Source\PSoC5/PRS.c **** *******************************************************************************/
  60:Generated_Source\PSoC5/PRS.c **** void PRS_Init(void) 
  61:Generated_Source\PSoC5/PRS.c **** {
  43              		.loc 1 61 0
  44              		.cfi_startproc
  45              		@ args = 0, pretend = 0, frame = 0
  46              		@ frame_needed = 1, uses_anonymous_args = 0
  47 0000 80B5     		push	{r7, lr}
  48              		.cfi_def_cfa_offset 8
  49              		.cfi_offset 7, -8
  50              		.cfi_offset 14, -4
  51 0002 00AF     		add	r7, sp, #0
  52              		.cfi_def_cfa_register 7
  62:Generated_Source\PSoC5/PRS.c ****     /* Writes seed value and ponynom value provided for customizer */
ARM GAS  C:\Users\merce\AppData\Local\Temp\ccTdsbCf.s 			page 3


  63:Generated_Source\PSoC5/PRS.c ****     #if (PRS_PRS_SIZE <= 32u)
  64:Generated_Source\PSoC5/PRS.c ****         PRS_WritePolynomial(PRS_DEFAULT_POLYNOM);
  53              		.loc 1 64 0
  54 0004 4FF43440 		mov	r0, #46080
  55 0008 FFF7FEFF 		bl	PRS_WritePolynomial
  65:Generated_Source\PSoC5/PRS.c ****         PRS_WriteSeed(PRS_DEFAULT_SEED);
  56              		.loc 1 65 0
  57 000c 4FF6FF70 		movw	r0, #65535
  58 0010 FFF7FEFF 		bl	PRS_WriteSeed
  66:Generated_Source\PSoC5/PRS.c ****         #if (PRS_RUN_MODE == PRS__CLOCKED)
  67:Generated_Source\PSoC5/PRS.c ****             PRS_ResetSeedInit(PRS_DEFAULT_SEED);
  59              		.loc 1 67 0
  60 0014 4FF6FF70 		movw	r0, #65535
  61 0018 FFF7FEFF 		bl	PRS_ResetSeedInit
  68:Generated_Source\PSoC5/PRS.c ****         #endif  /* End (PRS_RUN_MODE == PRS__CLOCKED) */
  69:Generated_Source\PSoC5/PRS.c ****             PRS_Enable();
  62              		.loc 1 69 0
  63 001c FFF7FEFF 		bl	PRS_Enable
  70:Generated_Source\PSoC5/PRS.c ****     #else
  71:Generated_Source\PSoC5/PRS.c ****         PRS_WritePolynomialUpper(PRS_DEFAULT_POLYNOM_UPPER);
  72:Generated_Source\PSoC5/PRS.c ****         PRS_WritePolynomialLower(PRS_DEFAULT_POLYNOM_LOWER);
  73:Generated_Source\PSoC5/PRS.c ****         PRS_WriteSeedUpper(PRS_DEFAULT_SEED_UPPER);
  74:Generated_Source\PSoC5/PRS.c ****         PRS_WriteSeedLower(PRS_DEFAULT_SEED_LOWER);
  75:Generated_Source\PSoC5/PRS.c ****         #if (PRS_RUN_MODE == PRS__CLOCKED)
  76:Generated_Source\PSoC5/PRS.c ****             PRS_ResetSeedInitUpper(PRS_DEFAULT_SEED_UPPER);
  77:Generated_Source\PSoC5/PRS.c ****             PRS_ResetSeedInitLower(PRS_DEFAULT_SEED_LOWER);
  78:Generated_Source\PSoC5/PRS.c ****         #endif  /* End (PRS_RUN_MODE == PRS__CLOCKED) */
  79:Generated_Source\PSoC5/PRS.c ****             PRS_Enable();
  80:Generated_Source\PSoC5/PRS.c ****     #endif  /* End (PRS_PRS_SIZE <= 32u) */
  81:Generated_Source\PSoC5/PRS.c **** }
  64              		.loc 1 81 0
  65 0020 00BF     		nop
  66 0022 80BD     		pop	{r7, pc}
  67              		.cfi_endproc
  68              	.LFE0:
  69              		.size	PRS_Init, .-PRS_Init
  70              		.section	.text.PRS_Enable,"ax",%progbits
  71              		.align	2
  72              		.global	PRS_Enable
  73              		.thumb
  74              		.thumb_func
  75              		.type	PRS_Enable, %function
  76              	PRS_Enable:
  77              	.LFB1:
  82:Generated_Source\PSoC5/PRS.c **** 
  83:Generated_Source\PSoC5/PRS.c **** 
  84:Generated_Source\PSoC5/PRS.c **** /*******************************************************************************
  85:Generated_Source\PSoC5/PRS.c **** * Function Name: PRS_Enable
  86:Generated_Source\PSoC5/PRS.c **** ********************************************************************************
  87:Generated_Source\PSoC5/PRS.c **** *
  88:Generated_Source\PSoC5/PRS.c **** * Summary:
  89:Generated_Source\PSoC5/PRS.c **** *  Starts PRS computation on rising edge of input clock.
  90:Generated_Source\PSoC5/PRS.c **** *
  91:Generated_Source\PSoC5/PRS.c **** * Parameters:
  92:Generated_Source\PSoC5/PRS.c **** *  void
  93:Generated_Source\PSoC5/PRS.c **** *
  94:Generated_Source\PSoC5/PRS.c **** * Return:
ARM GAS  C:\Users\merce\AppData\Local\Temp\ccTdsbCf.s 			page 4


  95:Generated_Source\PSoC5/PRS.c **** *  void
  96:Generated_Source\PSoC5/PRS.c **** *
  97:Generated_Source\PSoC5/PRS.c **** *******************************************************************************/
  98:Generated_Source\PSoC5/PRS.c **** void PRS_Enable(void) 
  99:Generated_Source\PSoC5/PRS.c **** {
  78              		.loc 1 99 0
  79              		.cfi_startproc
  80              		@ args = 0, pretend = 0, frame = 0
  81              		@ frame_needed = 1, uses_anonymous_args = 0
  82              		@ link register save eliminated.
  83 0000 80B4     		push	{r7}
  84              		.cfi_def_cfa_offset 4
  85              		.cfi_offset 7, -4
  86 0002 00AF     		add	r7, sp, #0
  87              		.cfi_def_cfa_register 7
 100:Generated_Source\PSoC5/PRS.c ****         PRS_CONTROL_REG |= PRS_CTRL_ENABLE;
  88              		.loc 1 100 0
  89 0004 054A     		ldr	r2, .L3
  90 0006 054B     		ldr	r3, .L3
  91 0008 1B78     		ldrb	r3, [r3]
  92 000a DBB2     		uxtb	r3, r3
  93 000c 43F00103 		orr	r3, r3, #1
  94 0010 DBB2     		uxtb	r3, r3
  95 0012 1370     		strb	r3, [r2]
 101:Generated_Source\PSoC5/PRS.c **** }
  96              		.loc 1 101 0
  97 0014 00BF     		nop
  98 0016 BD46     		mov	sp, r7
  99              		.cfi_def_cfa_register 13
 100              		@ sp needed
 101 0018 80BC     		pop	{r7}
 102              		.cfi_restore 7
 103              		.cfi_def_cfa_offset 0
 104 001a 7047     		bx	lr
 105              	.L4:
 106              		.align	2
 107              	.L3:
 108 001c 79650040 		.word	1073767801
 109              		.cfi_endproc
 110              	.LFE1:
 111              		.size	PRS_Enable, .-PRS_Enable
 112              		.section	.text.PRS_Start,"ax",%progbits
 113              		.align	2
 114              		.global	PRS_Start
 115              		.thumb
 116              		.thumb_func
 117              		.type	PRS_Start, %function
 118              	PRS_Start:
 119              	.LFB2:
 102:Generated_Source\PSoC5/PRS.c **** 
 103:Generated_Source\PSoC5/PRS.c **** 
 104:Generated_Source\PSoC5/PRS.c **** /*******************************************************************************
 105:Generated_Source\PSoC5/PRS.c **** * Function Name: PRS_Start
 106:Generated_Source\PSoC5/PRS.c **** ********************************************************************************
 107:Generated_Source\PSoC5/PRS.c **** *
 108:Generated_Source\PSoC5/PRS.c **** * Summary:
 109:Generated_Source\PSoC5/PRS.c **** *  Initializes seed and polynomial registers with initial values. Computation
ARM GAS  C:\Users\merce\AppData\Local\Temp\ccTdsbCf.s 			page 5


 110:Generated_Source\PSoC5/PRS.c **** *  of PRS starts on rising edge of input clock.
 111:Generated_Source\PSoC5/PRS.c **** *
 112:Generated_Source\PSoC5/PRS.c **** * Parameters:
 113:Generated_Source\PSoC5/PRS.c **** *  void
 114:Generated_Source\PSoC5/PRS.c **** *
 115:Generated_Source\PSoC5/PRS.c **** * Return:
 116:Generated_Source\PSoC5/PRS.c **** *  void
 117:Generated_Source\PSoC5/PRS.c **** *
 118:Generated_Source\PSoC5/PRS.c **** * Global variables:
 119:Generated_Source\PSoC5/PRS.c **** *  PRS_initVar: global variable is used to indicate initial
 120:Generated_Source\PSoC5/PRS.c **** *  configuration of this component.  The variable is initialized to zero and set
 121:Generated_Source\PSoC5/PRS.c **** *  to 1 the first time PRS_Start() is called. This allows
 122:Generated_Source\PSoC5/PRS.c **** *  enable/disable component without re-initialization in all subsequent calls
 123:Generated_Source\PSoC5/PRS.c **** *  to the PRS_Start() routine.
 124:Generated_Source\PSoC5/PRS.c **** *
 125:Generated_Source\PSoC5/PRS.c **** *******************************************************************************/
 126:Generated_Source\PSoC5/PRS.c **** void PRS_Start(void) 
 127:Generated_Source\PSoC5/PRS.c **** {
 120              		.loc 1 127 0
 121              		.cfi_startproc
 122              		@ args = 0, pretend = 0, frame = 0
 123              		@ frame_needed = 1, uses_anonymous_args = 0
 124 0000 80B5     		push	{r7, lr}
 125              		.cfi_def_cfa_offset 8
 126              		.cfi_offset 7, -8
 127              		.cfi_offset 14, -4
 128 0002 00AF     		add	r7, sp, #0
 129              		.cfi_def_cfa_register 7
 128:Generated_Source\PSoC5/PRS.c ****     /* Writes seed value and ponynom value provided from customizer */
 129:Generated_Source\PSoC5/PRS.c ****     if (PRS_initVar == 0u)
 130              		.loc 1 129 0
 131 0004 064B     		ldr	r3, .L7
 132 0006 1B78     		ldrb	r3, [r3]	@ zero_extendqisi2
 133 0008 002B     		cmp	r3, #0
 134 000a 04D1     		bne	.L6
 130:Generated_Source\PSoC5/PRS.c ****     {
 131:Generated_Source\PSoC5/PRS.c ****         PRS_Init();
 135              		.loc 1 131 0
 136 000c FFF7FEFF 		bl	PRS_Init
 132:Generated_Source\PSoC5/PRS.c ****         PRS_initVar = 1u;
 137              		.loc 1 132 0
 138 0010 034B     		ldr	r3, .L7
 139 0012 0122     		movs	r2, #1
 140 0014 1A70     		strb	r2, [r3]
 141              	.L6:
 133:Generated_Source\PSoC5/PRS.c ****     }
 134:Generated_Source\PSoC5/PRS.c **** 
 135:Generated_Source\PSoC5/PRS.c ****     PRS_Enable();
 142              		.loc 1 135 0
 143 0016 FFF7FEFF 		bl	PRS_Enable
 136:Generated_Source\PSoC5/PRS.c **** }
 144              		.loc 1 136 0
 145 001a 00BF     		nop
 146 001c 80BD     		pop	{r7, pc}
 147              	.L8:
 148 001e 00BF     		.align	2
 149              	.L7:
ARM GAS  C:\Users\merce\AppData\Local\Temp\ccTdsbCf.s 			page 6


 150 0020 00000000 		.word	PRS_initVar
 151              		.cfi_endproc
 152              	.LFE2:
 153              		.size	PRS_Start, .-PRS_Start
 154              		.section	.text.PRS_Stop,"ax",%progbits
 155              		.align	2
 156              		.global	PRS_Stop
 157              		.thumb
 158              		.thumb_func
 159              		.type	PRS_Stop, %function
 160              	PRS_Stop:
 161              	.LFB3:
 137:Generated_Source\PSoC5/PRS.c **** 
 138:Generated_Source\PSoC5/PRS.c **** 
 139:Generated_Source\PSoC5/PRS.c **** /*******************************************************************************
 140:Generated_Source\PSoC5/PRS.c **** * Function Name: PRS_Stop
 141:Generated_Source\PSoC5/PRS.c **** ********************************************************************************
 142:Generated_Source\PSoC5/PRS.c **** *
 143:Generated_Source\PSoC5/PRS.c **** * Summary:
 144:Generated_Source\PSoC5/PRS.c **** *  Stops PRS computation.
 145:Generated_Source\PSoC5/PRS.c **** *
 146:Generated_Source\PSoC5/PRS.c **** * Parameters:
 147:Generated_Source\PSoC5/PRS.c **** *  void
 148:Generated_Source\PSoC5/PRS.c **** *
 149:Generated_Source\PSoC5/PRS.c **** * Return:
 150:Generated_Source\PSoC5/PRS.c **** *  void
 151:Generated_Source\PSoC5/PRS.c **** *
 152:Generated_Source\PSoC5/PRS.c **** *******************************************************************************/
 153:Generated_Source\PSoC5/PRS.c **** void PRS_Stop(void) 
 154:Generated_Source\PSoC5/PRS.c **** {
 162              		.loc 1 154 0
 163              		.cfi_startproc
 164              		@ args = 0, pretend = 0, frame = 0
 165              		@ frame_needed = 1, uses_anonymous_args = 0
 166              		@ link register save eliminated.
 167 0000 80B4     		push	{r7}
 168              		.cfi_def_cfa_offset 4
 169              		.cfi_offset 7, -4
 170 0002 00AF     		add	r7, sp, #0
 171              		.cfi_def_cfa_register 7
 155:Generated_Source\PSoC5/PRS.c ****     PRS_CONTROL_REG &= ((uint8)~PRS_CTRL_ENABLE);
 172              		.loc 1 155 0
 173 0004 054A     		ldr	r2, .L10
 174 0006 054B     		ldr	r3, .L10
 175 0008 1B78     		ldrb	r3, [r3]
 176 000a DBB2     		uxtb	r3, r3
 177 000c 23F00103 		bic	r3, r3, #1
 178 0010 DBB2     		uxtb	r3, r3
 179 0012 1370     		strb	r3, [r2]
 156:Generated_Source\PSoC5/PRS.c **** }
 180              		.loc 1 156 0
 181 0014 00BF     		nop
 182 0016 BD46     		mov	sp, r7
 183              		.cfi_def_cfa_register 13
 184              		@ sp needed
 185 0018 80BC     		pop	{r7}
 186              		.cfi_restore 7
ARM GAS  C:\Users\merce\AppData\Local\Temp\ccTdsbCf.s 			page 7


 187              		.cfi_def_cfa_offset 0
 188 001a 7047     		bx	lr
 189              	.L11:
 190              		.align	2
 191              	.L10:
 192 001c 79650040 		.word	1073767801
 193              		.cfi_endproc
 194              	.LFE3:
 195              		.size	PRS_Stop, .-PRS_Stop
 196              		.section	.text.PRS_ResetSeedInit,"ax",%progbits
 197              		.align	2
 198              		.global	PRS_ResetSeedInit
 199              		.thumb
 200              		.thumb_func
 201              		.type	PRS_ResetSeedInit, %function
 202              	PRS_ResetSeedInit:
 203              	.LFB4:
 157:Generated_Source\PSoC5/PRS.c **** 
 158:Generated_Source\PSoC5/PRS.c **** 
 159:Generated_Source\PSoC5/PRS.c **** #if (PRS_RUN_MODE == PRS__APISINGLESTEP)
 160:Generated_Source\PSoC5/PRS.c ****     /*******************************************************************************
 161:Generated_Source\PSoC5/PRS.c ****     * FUNCTION NAME: PRS_Step
 162:Generated_Source\PSoC5/PRS.c ****     ********************************************************************************
 163:Generated_Source\PSoC5/PRS.c ****     *
 164:Generated_Source\PSoC5/PRS.c ****     * Summary:
 165:Generated_Source\PSoC5/PRS.c ****     *  Increments the PRS by one when API single step mode is used.
 166:Generated_Source\PSoC5/PRS.c ****     *
 167:Generated_Source\PSoC5/PRS.c ****     * Parameters:
 168:Generated_Source\PSoC5/PRS.c ****     *  void
 169:Generated_Source\PSoC5/PRS.c ****     *
 170:Generated_Source\PSoC5/PRS.c ****     * Return:
 171:Generated_Source\PSoC5/PRS.c ****     *  void
 172:Generated_Source\PSoC5/PRS.c ****     *
 173:Generated_Source\PSoC5/PRS.c ****     *******************************************************************************/
 174:Generated_Source\PSoC5/PRS.c ****     void PRS_Step(void) 
 175:Generated_Source\PSoC5/PRS.c ****     {
 176:Generated_Source\PSoC5/PRS.c ****         #if (PRS_TIME_MULTIPLEXING_ENABLE)
 177:Generated_Source\PSoC5/PRS.c ****             /* Makes 4 pulse, 4x for Time Mult */
 178:Generated_Source\PSoC5/PRS.c ****             PRS_EXECUTE_STEP;
 179:Generated_Source\PSoC5/PRS.c ****             PRS_EXECUTE_STEP;
 180:Generated_Source\PSoC5/PRS.c ****             PRS_EXECUTE_STEP;
 181:Generated_Source\PSoC5/PRS.c ****             PRS_EXECUTE_STEP;
 182:Generated_Source\PSoC5/PRS.c **** 
 183:Generated_Source\PSoC5/PRS.c ****         #else
 184:Generated_Source\PSoC5/PRS.c ****             /* One pulse without Time mult required */
 185:Generated_Source\PSoC5/PRS.c ****             PRS_EXECUTE_STEP;
 186:Generated_Source\PSoC5/PRS.c **** 
 187:Generated_Source\PSoC5/PRS.c ****         #endif  /* End PRS_TIME_MULTIPLEXING_ENABLE */
 188:Generated_Source\PSoC5/PRS.c ****     }
 189:Generated_Source\PSoC5/PRS.c **** #endif  /* End (PRS_RUN_MODE == PRS__APISINGLESTEP) */
 190:Generated_Source\PSoC5/PRS.c **** 
 191:Generated_Source\PSoC5/PRS.c **** 
 192:Generated_Source\PSoC5/PRS.c **** #if (PRS_RUN_MODE == PRS__CLOCKED)
 193:Generated_Source\PSoC5/PRS.c ****     #if (PRS_PRS_SIZE <= 32u) /* 8-32 bits PRS */
 194:Generated_Source\PSoC5/PRS.c ****         /*******************************************************************************
 195:Generated_Source\PSoC5/PRS.c ****         * FUNCTION NAME: PRS_ResetSeedInit
 196:Generated_Source\PSoC5/PRS.c ****         ********************************************************************************
ARM GAS  C:\Users\merce\AppData\Local\Temp\ccTdsbCf.s 			page 8


 197:Generated_Source\PSoC5/PRS.c ****         *
 198:Generated_Source\PSoC5/PRS.c ****         * Summary:
 199:Generated_Source\PSoC5/PRS.c ****         *  Increments the PRS by one when API single step mode is used.
 200:Generated_Source\PSoC5/PRS.c ****         *
 201:Generated_Source\PSoC5/PRS.c ****         * Parameters:
 202:Generated_Source\PSoC5/PRS.c ****         *  void
 203:Generated_Source\PSoC5/PRS.c ****         *
 204:Generated_Source\PSoC5/PRS.c ****         * Return:
 205:Generated_Source\PSoC5/PRS.c ****         *  void
 206:Generated_Source\PSoC5/PRS.c ****         *
 207:Generated_Source\PSoC5/PRS.c ****         *******************************************************************************/
 208:Generated_Source\PSoC5/PRS.c ****         void PRS_ResetSeedInit(uint16 seed)
 209:Generated_Source\PSoC5/PRS.c ****                                             
 210:Generated_Source\PSoC5/PRS.c ****         {
 204              		.loc 1 210 0
 205              		.cfi_startproc
 206              		@ args = 0, pretend = 0, frame = 16
 207              		@ frame_needed = 1, uses_anonymous_args = 0
 208 0000 80B5     		push	{r7, lr}
 209              		.cfi_def_cfa_offset 8
 210              		.cfi_offset 7, -8
 211              		.cfi_offset 14, -4
 212 0002 84B0     		sub	sp, sp, #16
 213              		.cfi_def_cfa_offset 24
 214 0004 00AF     		add	r7, sp, #0
 215              		.cfi_def_cfa_register 7
 216 0006 0346     		mov	r3, r0
 217 0008 FB80     		strh	r3, [r7, #6]	@ movhi
 211:Generated_Source\PSoC5/PRS.c ****             uint8 enableInterrupts;
 212:Generated_Source\PSoC5/PRS.c **** 
 213:Generated_Source\PSoC5/PRS.c ****             /* Mask the Seed to cut unused bits */
 214:Generated_Source\PSoC5/PRS.c ****             seed &= PRS_MASK;
 215:Generated_Source\PSoC5/PRS.c **** 
 216:Generated_Source\PSoC5/PRS.c ****             /* Change AuxControl reg, need to be safety */
 217:Generated_Source\PSoC5/PRS.c ****             enableInterrupts = CyEnterCriticalSection();
 218              		.loc 1 217 0
 219 000a FFF7FEFF 		bl	CyEnterCriticalSection
 220 000e 0346     		mov	r3, r0
 221 0010 FB73     		strb	r3, [r7, #15]
 218:Generated_Source\PSoC5/PRS.c **** 
 219:Generated_Source\PSoC5/PRS.c ****             #if (PRS_TIME_MULTIPLEXING_ENABLE)
 220:Generated_Source\PSoC5/PRS.c ****                 /* Set FIFOs to single register */
 221:Generated_Source\PSoC5/PRS.c ****                 PRS_AUX_CONTROL_A_REG |= PRS_AUXCTRL_FIFO_SINGLE_REG;
 222:Generated_Source\PSoC5/PRS.c **** 
 223:Generated_Source\PSoC5/PRS.c ****                 #if(PRS_PRS_SIZE > 16u)       /* 17-32 bits PRS */
 224:Generated_Source\PSoC5/PRS.c ****                     PRS_AUX_CONTROL_B_REG |= PRS_AUXCTRL_FIFO_SINGLE_REG;
 225:Generated_Source\PSoC5/PRS.c ****                 #endif  /* End (PRS_PRS_SIZE <= 8u) */
 226:Generated_Source\PSoC5/PRS.c **** 
 227:Generated_Source\PSoC5/PRS.c ****                 /* AuxControl reg settings are done */
 228:Generated_Source\PSoC5/PRS.c ****                 CyExitCriticalSection(enableInterrupts);
 229:Generated_Source\PSoC5/PRS.c **** 
 230:Generated_Source\PSoC5/PRS.c ****                 /* Write Seed COPY */
 231:Generated_Source\PSoC5/PRS.c ****                 #if (PRS_PRS_SIZE <= 16u)          /* 16 bits PRS */
 232:Generated_Source\PSoC5/PRS.c ****                     PRS_SEED_COPY_A__A1_REG = HI8(seed);
 233:Generated_Source\PSoC5/PRS.c ****                     PRS_SEED_COPY_A__A0_REG = LO8(seed);
 234:Generated_Source\PSoC5/PRS.c **** 
 235:Generated_Source\PSoC5/PRS.c ****                 #elif (PRS_PRS_SIZE <= 24u)        /* 24 bits PRS */
ARM GAS  C:\Users\merce\AppData\Local\Temp\ccTdsbCf.s 			page 9


 236:Generated_Source\PSoC5/PRS.c ****                     PRS_SEED_COPY_B__A1_REG = LO8(HI16(seed));
 237:Generated_Source\PSoC5/PRS.c ****                     PRS_SEED_COPY_B__A0_REG = HI8(seed);
 238:Generated_Source\PSoC5/PRS.c ****                     PRS_SEED_COPY_A__A0_REG = LO8(seed);
 239:Generated_Source\PSoC5/PRS.c **** 
 240:Generated_Source\PSoC5/PRS.c ****                 #else                                           /* 32 bits PRS */
 241:Generated_Source\PSoC5/PRS.c ****                     PRS_SEED_COPY_B__A1_REG = HI8(HI16(seed));
 242:Generated_Source\PSoC5/PRS.c ****                     PRS_SEED_COPY_A__A1_REG = LO8(HI16(seed));
 243:Generated_Source\PSoC5/PRS.c ****                     PRS_SEED_COPY_B__A0_REG = HI8(seed);
 244:Generated_Source\PSoC5/PRS.c ****                     PRS_SEED_COPY_A__A0_REG = LO8(seed);
 245:Generated_Source\PSoC5/PRS.c ****                 #endif  /* End (PRS_PRS_SIZE <= 32u) */
 246:Generated_Source\PSoC5/PRS.c **** 
 247:Generated_Source\PSoC5/PRS.c ****             #else
 248:Generated_Source\PSoC5/PRS.c ****                 /* Set FIFOs to single register */
 249:Generated_Source\PSoC5/PRS.c ****                 #if (PRS_PRS_SIZE <= 8u)      /* 8 bits PRS */
 250:Generated_Source\PSoC5/PRS.c ****                     PRS_AUX_CONTROL_A_REG |= PRS_AUXCTRL_FIFO_SINGLE_REG;
 251:Generated_Source\PSoC5/PRS.c **** 
 252:Generated_Source\PSoC5/PRS.c ****                 #elif (PRS_PRS_SIZE <= 16u)      /* 16 bits PRS */
 253:Generated_Source\PSoC5/PRS.c ****                     PRS_AUX_CONTROL_A_REG  |= PRS_AUXCTRL_FIFO_SINGLE_REG;
 222              		.loc 1 253 0
 223 0012 0D4A     		ldr	r2, .L13
 224 0014 0C4B     		ldr	r3, .L13
 225 0016 1B78     		ldrb	r3, [r3]
 226 0018 DBB2     		uxtb	r3, r3
 227 001a 43F00303 		orr	r3, r3, #3
 228 001e DBB2     		uxtb	r3, r3
 229 0020 1370     		strb	r3, [r2]
 254:Generated_Source\PSoC5/PRS.c ****                     PRS_AUX_CONTROL_B_REG  |= PRS_AUXCTRL_FIFO_SINGLE_REG;
 230              		.loc 1 254 0
 231 0022 0A4A     		ldr	r2, .L13+4
 232 0024 094B     		ldr	r3, .L13+4
 233 0026 1B78     		ldrb	r3, [r3]
 234 0028 DBB2     		uxtb	r3, r3
 235 002a 43F00303 		orr	r3, r3, #3
 236 002e DBB2     		uxtb	r3, r3
 237 0030 1370     		strb	r3, [r2]
 255:Generated_Source\PSoC5/PRS.c **** 
 256:Generated_Source\PSoC5/PRS.c ****                 #elif (PRS_PRS_SIZE <= 24u)      /* 24-39 bits PRS */
 257:Generated_Source\PSoC5/PRS.c ****                     PRS_AUX_CONTROL_A_REG  |= PRS_AUXCTRL_FIFO_SINGLE_REG;
 258:Generated_Source\PSoC5/PRS.c ****                     PRS_AUX_CONTROL_B_REG  |= PRS_AUXCTRL_FIFO_SINGLE_REG;
 259:Generated_Source\PSoC5/PRS.c ****                     PRS_AUX_CONTROL_C_REG  |= PRS_AUXCTRL_FIFO_SINGLE_REG;
 260:Generated_Source\PSoC5/PRS.c **** 
 261:Generated_Source\PSoC5/PRS.c ****                 #elif (PRS_PRS_SIZE <= 32u)      /* 40-55 bits PRS */
 262:Generated_Source\PSoC5/PRS.c ****                     PRS_AUX_CONTROL_A_REG  |= PRS_AUXCTRL_FIFO_SINGLE_REG;
 263:Generated_Source\PSoC5/PRS.c ****                     PRS_AUX_CONTROL_B_REG  |= PRS_AUXCTRL_FIFO_SINGLE_REG;
 264:Generated_Source\PSoC5/PRS.c ****                     PRS_AUX_CONTROL_C_REG  |= PRS_AUXCTRL_FIFO_SINGLE_REG;
 265:Generated_Source\PSoC5/PRS.c ****                     PRS_AUX_CONTROL_D_REG  |= PRS_AUXCTRL_FIFO_SINGLE_REG;
 266:Generated_Source\PSoC5/PRS.c **** 
 267:Generated_Source\PSoC5/PRS.c ****                 #endif  /* End (PRS_PRS_SIZE <= 8u) */
 268:Generated_Source\PSoC5/PRS.c **** 
 269:Generated_Source\PSoC5/PRS.c ****                 /* AuxControl reg setting are done */
 270:Generated_Source\PSoC5/PRS.c ****                 CyExitCriticalSection(enableInterrupts);
 238              		.loc 1 270 0
 239 0032 FB7B     		ldrb	r3, [r7, #15]	@ zero_extendqisi2
 240 0034 1846     		mov	r0, r3
 241 0036 FFF7FEFF 		bl	CyExitCriticalSection
 271:Generated_Source\PSoC5/PRS.c **** 
 272:Generated_Source\PSoC5/PRS.c ****                 /* Write Seed COPY */
ARM GAS  C:\Users\merce\AppData\Local\Temp\ccTdsbCf.s 			page 10


 273:Generated_Source\PSoC5/PRS.c ****                 CY_SET_REG16(PRS_SEED_COPY_PTR, seed);
 242              		.loc 1 273 0
 243 003a 054A     		ldr	r2, .L13+8
 244 003c FB88     		ldrh	r3, [r7, #6]	@ movhi
 245 003e 1380     		strh	r3, [r2]	@ movhi
 274:Generated_Source\PSoC5/PRS.c **** 
 275:Generated_Source\PSoC5/PRS.c ****             #endif  /* End (PRS_TIME_MULTIPLEXING_ENABLE) */
 276:Generated_Source\PSoC5/PRS.c ****         }
 246              		.loc 1 276 0
 247 0040 00BF     		nop
 248 0042 1037     		adds	r7, r7, #16
 249              		.cfi_def_cfa_offset 8
 250 0044 BD46     		mov	sp, r7
 251              		.cfi_def_cfa_register 13
 252              		@ sp needed
 253 0046 80BD     		pop	{r7, pc}
 254              	.L14:
 255              		.align	2
 256              	.L13:
 257 0048 98650040 		.word	1073767832
 258 004c 99650040 		.word	1073767833
 259 0050 48650040 		.word	1073767752
 260              		.cfi_endproc
 261              	.LFE4:
 262              		.size	PRS_ResetSeedInit, .-PRS_ResetSeedInit
 263              		.section	.text.PRS_Read,"ax",%progbits
 264              		.align	2
 265              		.global	PRS_Read
 266              		.thumb
 267              		.thumb_func
 268              		.type	PRS_Read, %function
 269              	PRS_Read:
 270              	.LFB5:
 277:Generated_Source\PSoC5/PRS.c **** 
 278:Generated_Source\PSoC5/PRS.c ****     #else
 279:Generated_Source\PSoC5/PRS.c **** 
 280:Generated_Source\PSoC5/PRS.c ****         /*******************************************************************************
 281:Generated_Source\PSoC5/PRS.c ****         * FUNCTION NAME: PRS_ResetSeedInitUpper
 282:Generated_Source\PSoC5/PRS.c ****         ********************************************************************************
 283:Generated_Source\PSoC5/PRS.c ****         *
 284:Generated_Source\PSoC5/PRS.c ****         * Summary:
 285:Generated_Source\PSoC5/PRS.c ****         *  Increments the PRS by one when API single step mode is used.
 286:Generated_Source\PSoC5/PRS.c ****         *
 287:Generated_Source\PSoC5/PRS.c ****         * Parameters:
 288:Generated_Source\PSoC5/PRS.c ****         *  void
 289:Generated_Source\PSoC5/PRS.c ****         *
 290:Generated_Source\PSoC5/PRS.c ****         * Return:
 291:Generated_Source\PSoC5/PRS.c ****         *  void
 292:Generated_Source\PSoC5/PRS.c ****         *
 293:Generated_Source\PSoC5/PRS.c ****         *******************************************************************************/
 294:Generated_Source\PSoC5/PRS.c ****         void PRS_ResetSeedInitUpper(uint32 seed) 
 295:Generated_Source\PSoC5/PRS.c ****         {
 296:Generated_Source\PSoC5/PRS.c **** 			uint8 enableInterrupts;
 297:Generated_Source\PSoC5/PRS.c **** 
 298:Generated_Source\PSoC5/PRS.c **** 			/* Mask the Seed Upper half to cut unused bits */
 299:Generated_Source\PSoC5/PRS.c ****             seed &= PRS_MASK;
 300:Generated_Source\PSoC5/PRS.c **** 
ARM GAS  C:\Users\merce\AppData\Local\Temp\ccTdsbCf.s 			page 11


 301:Generated_Source\PSoC5/PRS.c **** 			/* Change AuxControl reg, need to be safety */
 302:Generated_Source\PSoC5/PRS.c ****             enableInterrupts = CyEnterCriticalSection();
 303:Generated_Source\PSoC5/PRS.c **** 
 304:Generated_Source\PSoC5/PRS.c ****             /* Set FIFOs to single register */
 305:Generated_Source\PSoC5/PRS.c ****             PRS_AUX_CONTROL_A_REG |= PRS_AUXCTRL_FIFO_SINGLE_REG;
 306:Generated_Source\PSoC5/PRS.c ****             PRS_AUX_CONTROL_B_REG |= PRS_AUXCTRL_FIFO_SINGLE_REG;
 307:Generated_Source\PSoC5/PRS.c ****             PRS_AUX_CONTROL_C_REG |= PRS_AUXCTRL_FIFO_SINGLE_REG;
 308:Generated_Source\PSoC5/PRS.c **** 
 309:Generated_Source\PSoC5/PRS.c **** 			#if (PRS_PRS_SIZE > 48u)               /* 49-64 bits PRS */
 310:Generated_Source\PSoC5/PRS.c ****                 PRS_AUX_CONTROL_D_REG |= PRS_AUXCTRL_FIFO_SINGLE_REG;
 311:Generated_Source\PSoC5/PRS.c ****             #endif  /* End (PRS_PRS_SIZE <= 8u) */
 312:Generated_Source\PSoC5/PRS.c **** 
 313:Generated_Source\PSoC5/PRS.c ****             /* AuxControl reg settings are done */
 314:Generated_Source\PSoC5/PRS.c ****             CyExitCriticalSection(enableInterrupts);
 315:Generated_Source\PSoC5/PRS.c **** 
 316:Generated_Source\PSoC5/PRS.c ****             /* Write Seed Upper COPY */
 317:Generated_Source\PSoC5/PRS.c ****             #if (PRS_PRS_SIZE <= 40u)          /* 40 bits PRS */
 318:Generated_Source\PSoC5/PRS.c ****                 PRS_SEED_UPPER_COPY_C__A1_REG = LO8(seed);
 319:Generated_Source\PSoC5/PRS.c **** 
 320:Generated_Source\PSoC5/PRS.c ****             #elif (PRS_PRS_SIZE <= 48u)        /* 48 bits PRS */
 321:Generated_Source\PSoC5/PRS.c ****                 PRS_SEED_UPPER_COPY_C__A1_REG = HI8(seed);
 322:Generated_Source\PSoC5/PRS.c ****                 PRS_SEED_UPPER_COPY_B__A1_REG = LO8(seed);
 323:Generated_Source\PSoC5/PRS.c **** 
 324:Generated_Source\PSoC5/PRS.c ****             #elif (PRS_PRS_SIZE <= 56u)        /* 56 bits PRS */
 325:Generated_Source\PSoC5/PRS.c ****                 PRS_SEED_UPPER_COPY_D__A1_REG = LO8(HI16(seed));
 326:Generated_Source\PSoC5/PRS.c ****                 PRS_SEED_UPPER_COPY_C__A1_REG = HI8(seed);
 327:Generated_Source\PSoC5/PRS.c ****                 PRS_SEED_UPPER_COPY_B__A1_REG = HI8(seed);
 328:Generated_Source\PSoC5/PRS.c **** 
 329:Generated_Source\PSoC5/PRS.c ****             #else                                           /* 64 bits PRS */
 330:Generated_Source\PSoC5/PRS.c ****                 PRS_SEED_UPPER_COPY_D__A1_REG = HI8(HI16(seed));
 331:Generated_Source\PSoC5/PRS.c ****                 PRS_SEED_UPPER_COPY_C__A1_REG = LO8(HI16(seed));
 332:Generated_Source\PSoC5/PRS.c ****                 PRS_SEED_UPPER_COPY_B__A1_REG = HI8(seed);
 333:Generated_Source\PSoC5/PRS.c ****                 PRS_SEED_UPPER_COPY_A__A1_REG = LO8(seed);
 334:Generated_Source\PSoC5/PRS.c **** 
 335:Generated_Source\PSoC5/PRS.c ****             #endif  /* End (PRS_PRS_SIZE <= 32u) */
 336:Generated_Source\PSoC5/PRS.c ****         }
 337:Generated_Source\PSoC5/PRS.c **** 
 338:Generated_Source\PSoC5/PRS.c **** 
 339:Generated_Source\PSoC5/PRS.c ****         /*******************************************************************************
 340:Generated_Source\PSoC5/PRS.c ****         * FUNCTION NAME: PRS_ResetSeedInitLower
 341:Generated_Source\PSoC5/PRS.c ****         ********************************************************************************
 342:Generated_Source\PSoC5/PRS.c ****         *
 343:Generated_Source\PSoC5/PRS.c ****         * Summary:
 344:Generated_Source\PSoC5/PRS.c ****         *  Increments the PRS by one when API single step mode is used.
 345:Generated_Source\PSoC5/PRS.c ****         *
 346:Generated_Source\PSoC5/PRS.c ****         * Parameters:
 347:Generated_Source\PSoC5/PRS.c ****         *  void
 348:Generated_Source\PSoC5/PRS.c ****         *
 349:Generated_Source\PSoC5/PRS.c ****         * Return:
 350:Generated_Source\PSoC5/PRS.c ****         *  void
 351:Generated_Source\PSoC5/PRS.c ****         *
 352:Generated_Source\PSoC5/PRS.c ****         *******************************************************************************/
 353:Generated_Source\PSoC5/PRS.c ****         void PRS_ResetSeedInitLower(uint32 seed) 
 354:Generated_Source\PSoC5/PRS.c ****         {
 355:Generated_Source\PSoC5/PRS.c ****             /* Write Seed Lower COPY */
 356:Generated_Source\PSoC5/PRS.c ****             #if (PRS_PRS_SIZE <= 40u)          /* 40 bits PRS */
 357:Generated_Source\PSoC5/PRS.c ****                 PRS_SEED_LOWER_COPY_B__A1_REG = HI8(HI16(seed));
ARM GAS  C:\Users\merce\AppData\Local\Temp\ccTdsbCf.s 			page 12


 358:Generated_Source\PSoC5/PRS.c ****                 PRS_SEED_LOWER_COPY_C__A0_REG = LO8(HI16(seed));
 359:Generated_Source\PSoC5/PRS.c ****                 PRS_SEED_LOWER_COPY_B__A0_REG = HI8(seed);
 360:Generated_Source\PSoC5/PRS.c ****                 PRS_SEED_LOWER_COPY_A__A0_REG = LO8(seed);
 361:Generated_Source\PSoC5/PRS.c **** 
 362:Generated_Source\PSoC5/PRS.c ****             #elif (PRS_PRS_SIZE <= 48u)        /* 48 bits PRS */
 363:Generated_Source\PSoC5/PRS.c ****                 PRS_SEED_LOWER_COPY_A__A1_REG = HI8(HI16(seed));
 364:Generated_Source\PSoC5/PRS.c ****                 PRS_SEED_LOWER_COPY_C__A0_REG = LO8(HI16(seed));
 365:Generated_Source\PSoC5/PRS.c ****                 PRS_SEED_LOWER_COPY_B__A0_REG = HI8(seed);
 366:Generated_Source\PSoC5/PRS.c ****                 PRS_SEED_LOWER_COPY_A__A0_REG = LO8(seed);
 367:Generated_Source\PSoC5/PRS.c **** 
 368:Generated_Source\PSoC5/PRS.c ****             #else                                           /* 64 bits PRS */
 369:Generated_Source\PSoC5/PRS.c ****                 PRS_SEED_LOWER_COPY_D__A0_REG = HI8(HI16(seed));
 370:Generated_Source\PSoC5/PRS.c ****                 PRS_SEED_LOWER_COPY_C__A0_REG = LO8(HI16(seed));
 371:Generated_Source\PSoC5/PRS.c ****                 PRS_SEED_LOWER_COPY_B__A0_REG = HI8(seed);
 372:Generated_Source\PSoC5/PRS.c ****                 PRS_SEED_LOWER_COPY_A__A0_REG = LO8(seed);
 373:Generated_Source\PSoC5/PRS.c **** 
 374:Generated_Source\PSoC5/PRS.c ****             #endif  /* End (PRS_PRS_SIZE <= 32u) */
 375:Generated_Source\PSoC5/PRS.c ****         }
 376:Generated_Source\PSoC5/PRS.c **** 
 377:Generated_Source\PSoC5/PRS.c ****     #endif  /* End (PRS_PRS_SIZE <= 32u) */
 378:Generated_Source\PSoC5/PRS.c **** 
 379:Generated_Source\PSoC5/PRS.c **** #endif  /* End (PRS_RUN_MODE == PRS__CLOCKED) */
 380:Generated_Source\PSoC5/PRS.c **** 
 381:Generated_Source\PSoC5/PRS.c **** 
 382:Generated_Source\PSoC5/PRS.c **** #if(PRS_PRS_SIZE <= 32u) /* 8-32 bits PRS */
 383:Generated_Source\PSoC5/PRS.c ****     /*******************************************************************************
 384:Generated_Source\PSoC5/PRS.c ****     * Function Name: PRS_Read
 385:Generated_Source\PSoC5/PRS.c ****     ********************************************************************************
 386:Generated_Source\PSoC5/PRS.c ****     *
 387:Generated_Source\PSoC5/PRS.c ****     * Summary:
 388:Generated_Source\PSoC5/PRS.c ****     *  Reads PRS value.
 389:Generated_Source\PSoC5/PRS.c ****     *
 390:Generated_Source\PSoC5/PRS.c ****     * Parameters:
 391:Generated_Source\PSoC5/PRS.c ****     *  void
 392:Generated_Source\PSoC5/PRS.c ****     *
 393:Generated_Source\PSoC5/PRS.c ****     * Return:
 394:Generated_Source\PSoC5/PRS.c ****     *  Returns PRS value.
 395:Generated_Source\PSoC5/PRS.c ****     *
 396:Generated_Source\PSoC5/PRS.c ****     * Side Effects:
 397:Generated_Source\PSoC5/PRS.c ****     *  The seed value is cut according to mask = 2^(Resolution) - 1.
 398:Generated_Source\PSoC5/PRS.c ****     *  For example if PRS Resolution is 14 bits the mask value is:
 399:Generated_Source\PSoC5/PRS.c ****     *  mask = 2^(14) - 1 = 0x3FFFu.
 400:Generated_Source\PSoC5/PRS.c ****     *  The seed value = 0xFFFFu is cut:
 401:Generated_Source\PSoC5/PRS.c ****     *  seed & mask = 0xFFFFu & 0x3FFFu = 0x3FFFu.
 402:Generated_Source\PSoC5/PRS.c ****     *
 403:Generated_Source\PSoC5/PRS.c ****     *******************************************************************************/
 404:Generated_Source\PSoC5/PRS.c ****     uint16 PRS_Read(void) 
 405:Generated_Source\PSoC5/PRS.c ****     {
 271              		.loc 1 405 0
 272              		.cfi_startproc
 273              		@ args = 0, pretend = 0, frame = 0
 274              		@ frame_needed = 1, uses_anonymous_args = 0
 275              		@ link register save eliminated.
 276 0000 80B4     		push	{r7}
 277              		.cfi_def_cfa_offset 4
 278              		.cfi_offset 7, -4
 279 0002 00AF     		add	r7, sp, #0
ARM GAS  C:\Users\merce\AppData\Local\Temp\ccTdsbCf.s 			page 13


 280              		.cfi_def_cfa_register 7
 406:Generated_Source\PSoC5/PRS.c ****         /* Read PRS */
 407:Generated_Source\PSoC5/PRS.c ****         #if (PRS_TIME_MULTIPLEXING_ENABLE)
 408:Generated_Source\PSoC5/PRS.c **** 
 409:Generated_Source\PSoC5/PRS.c ****             uint16 seed;
 410:Generated_Source\PSoC5/PRS.c **** 
 411:Generated_Source\PSoC5/PRS.c ****             #if (PRS_PRS_SIZE <= 16u)          /* 16 bits PRS */
 412:Generated_Source\PSoC5/PRS.c ****                 seed = ((uint16) PRS_SEED_A__A1_REG) << 8u;
 413:Generated_Source\PSoC5/PRS.c ****                 seed |= PRS_SEED_A__A0_REG;
 414:Generated_Source\PSoC5/PRS.c **** 
 415:Generated_Source\PSoC5/PRS.c ****             #elif (PRS_PRS_SIZE <= 24u)        /* 24 bits PRS */
 416:Generated_Source\PSoC5/PRS.c ****                 seed = ((uint32) (PRS_SEED_B__A1_REG)) << 16u;
 417:Generated_Source\PSoC5/PRS.c ****                 seed |= ((uint32) (PRS_SEED_B__A0_REG)) << 8u;
 418:Generated_Source\PSoC5/PRS.c ****                 seed |= PRS_SEED_A__A0_REG;
 419:Generated_Source\PSoC5/PRS.c **** 
 420:Generated_Source\PSoC5/PRS.c ****             #else                                           /* 32 bits PRS */
 421:Generated_Source\PSoC5/PRS.c ****                 seed = ((uint32) PRS_SEED_B__A1_REG) << 24u;
 422:Generated_Source\PSoC5/PRS.c ****                 seed |= ((uint32) PRS_SEED_A__A1_REG) << 16u;
 423:Generated_Source\PSoC5/PRS.c ****                 seed |= ((uint32) PRS_SEED_B__A0_REG) << 8u;
 424:Generated_Source\PSoC5/PRS.c ****                 seed |= PRS_SEED_A__A0_REG;
 425:Generated_Source\PSoC5/PRS.c **** 
 426:Generated_Source\PSoC5/PRS.c ****             #endif  /* End (PRS_PRS_SIZE <= 8u) */
 427:Generated_Source\PSoC5/PRS.c **** 
 428:Generated_Source\PSoC5/PRS.c ****             return (seed  & PRS_MASK);
 429:Generated_Source\PSoC5/PRS.c **** 
 430:Generated_Source\PSoC5/PRS.c ****         #else
 431:Generated_Source\PSoC5/PRS.c **** 
 432:Generated_Source\PSoC5/PRS.c ****             return (CY_GET_REG16(PRS_SEED_PTR) & PRS_MASK);
 281              		.loc 1 432 0
 282 0004 034B     		ldr	r3, .L17
 283 0006 1B88     		ldrh	r3, [r3]	@ movhi
 284 0008 9BB2     		uxth	r3, r3
 433:Generated_Source\PSoC5/PRS.c **** 
 434:Generated_Source\PSoC5/PRS.c ****         #endif  /* End (PRS_TIME_MULTIPLEXING_ENABLE) */
 435:Generated_Source\PSoC5/PRS.c ****     }
 285              		.loc 1 435 0
 286 000a 1846     		mov	r0, r3
 287 000c BD46     		mov	sp, r7
 288              		.cfi_def_cfa_register 13
 289              		@ sp needed
 290 000e 80BC     		pop	{r7}
 291              		.cfi_restore 7
 292              		.cfi_def_cfa_offset 0
 293 0010 7047     		bx	lr
 294              	.L18:
 295 0012 00BF     		.align	2
 296              	.L17:
 297 0014 08650040 		.word	1073767688
 298              		.cfi_endproc
 299              	.LFE5:
 300              		.size	PRS_Read, .-PRS_Read
 301              		.section	.text.PRS_WriteSeed,"ax",%progbits
 302              		.align	2
 303              		.global	PRS_WriteSeed
 304              		.thumb
 305              		.thumb_func
 306              		.type	PRS_WriteSeed, %function
ARM GAS  C:\Users\merce\AppData\Local\Temp\ccTdsbCf.s 			page 14


 307              	PRS_WriteSeed:
 308              	.LFB6:
 436:Generated_Source\PSoC5/PRS.c **** 
 437:Generated_Source\PSoC5/PRS.c **** 
 438:Generated_Source\PSoC5/PRS.c ****     /*******************************************************************************
 439:Generated_Source\PSoC5/PRS.c ****     * Function Name: PRS_WriteSeed
 440:Generated_Source\PSoC5/PRS.c ****     ********************************************************************************
 441:Generated_Source\PSoC5/PRS.c ****     *
 442:Generated_Source\PSoC5/PRS.c ****     * Summary:
 443:Generated_Source\PSoC5/PRS.c ****     *  Writes seed value.
 444:Generated_Source\PSoC5/PRS.c ****     *
 445:Generated_Source\PSoC5/PRS.c ****     * Parameters:
 446:Generated_Source\PSoC5/PRS.c ****     *  seed:  Seed value.
 447:Generated_Source\PSoC5/PRS.c ****     *
 448:Generated_Source\PSoC5/PRS.c ****     * Return:
 449:Generated_Source\PSoC5/PRS.c ****     *  void
 450:Generated_Source\PSoC5/PRS.c ****     *
 451:Generated_Source\PSoC5/PRS.c ****     * Side Effects:
 452:Generated_Source\PSoC5/PRS.c ****     *  The seed value is cut according to mask = 2^(Resolution) - 1.
 453:Generated_Source\PSoC5/PRS.c ****     *  For example if PRS Resolution is 14 bits the mask value is:
 454:Generated_Source\PSoC5/PRS.c ****     *  mask = 2^(14) - 1 = 0x3FFFu.
 455:Generated_Source\PSoC5/PRS.c ****     *  The seed value = 0xFFFFu is cut:
 456:Generated_Source\PSoC5/PRS.c ****     *  seed & mask = 0xFFFFu & 0x3FFFu = 0x3FFFu.
 457:Generated_Source\PSoC5/PRS.c ****     *
 458:Generated_Source\PSoC5/PRS.c ****     *******************************************************************************/
 459:Generated_Source\PSoC5/PRS.c ****     void PRS_WriteSeed(uint16 seed) 
 460:Generated_Source\PSoC5/PRS.c ****     {
 309              		.loc 1 460 0
 310              		.cfi_startproc
 311              		@ args = 0, pretend = 0, frame = 8
 312              		@ frame_needed = 1, uses_anonymous_args = 0
 313              		@ link register save eliminated.
 314 0000 80B4     		push	{r7}
 315              		.cfi_def_cfa_offset 4
 316              		.cfi_offset 7, -4
 317 0002 83B0     		sub	sp, sp, #12
 318              		.cfi_def_cfa_offset 16
 319 0004 00AF     		add	r7, sp, #0
 320              		.cfi_def_cfa_register 7
 321 0006 0346     		mov	r3, r0
 322 0008 FB80     		strh	r3, [r7, #6]	@ movhi
 461:Generated_Source\PSoC5/PRS.c ****         /* Masks the Seed to cut unused bits */
 462:Generated_Source\PSoC5/PRS.c ****         seed &= PRS_MASK;
 463:Generated_Source\PSoC5/PRS.c **** 
 464:Generated_Source\PSoC5/PRS.c ****         /* Writes Seed */
 465:Generated_Source\PSoC5/PRS.c ****         #if (PRS_TIME_MULTIPLEXING_ENABLE)
 466:Generated_Source\PSoC5/PRS.c **** 
 467:Generated_Source\PSoC5/PRS.c ****             #if (PRS_PRS_SIZE <= 16u)          /* 16 bits PRS */
 468:Generated_Source\PSoC5/PRS.c ****                 PRS_SEED_A__A1_REG = HI8(seed);
 469:Generated_Source\PSoC5/PRS.c ****                 PRS_SEED_A__A0_REG = LO8(seed);
 470:Generated_Source\PSoC5/PRS.c **** 
 471:Generated_Source\PSoC5/PRS.c ****             #elif (PRS_PRS_SIZE <= 24u)        /* 24 bits PRS */
 472:Generated_Source\PSoC5/PRS.c ****                 PRS_SEED_B__A1_REG = LO8(HI16(seed));
 473:Generated_Source\PSoC5/PRS.c ****                 PRS_SEED_B__A0_REG = HI8(seed);
 474:Generated_Source\PSoC5/PRS.c ****                 PRS_SEED_A__A0_REG = LO8(seed);
 475:Generated_Source\PSoC5/PRS.c **** 
 476:Generated_Source\PSoC5/PRS.c ****             #else                                           /* 32 bits PRS */
ARM GAS  C:\Users\merce\AppData\Local\Temp\ccTdsbCf.s 			page 15


 477:Generated_Source\PSoC5/PRS.c ****                 PRS_SEED_B__A1_REG = HI8(HI16(seed));
 478:Generated_Source\PSoC5/PRS.c ****                 PRS_SEED_A__A1_REG = LO8(HI16(seed));
 479:Generated_Source\PSoC5/PRS.c ****                 PRS_SEED_B__A0_REG = HI8(seed);
 480:Generated_Source\PSoC5/PRS.c ****                 PRS_SEED_A__A0_REG = LO8(seed);
 481:Generated_Source\PSoC5/PRS.c ****             #endif  /* End (PRS_PRS_SIZE <= 32u) */
 482:Generated_Source\PSoC5/PRS.c **** 
 483:Generated_Source\PSoC5/PRS.c ****             /* Resets triggers */
 484:Generated_Source\PSoC5/PRS.c ****             #if (PRS_WAKEUP_BEHAVIOUR == PRS__RESUMEWORK)
 485:Generated_Source\PSoC5/PRS.c ****                 if((PRS_sleepState & PRS_NORMAL_SEQUENCE) != 0u)
 486:Generated_Source\PSoC5/PRS.c ****                 {
 487:Generated_Source\PSoC5/PRS.c ****                     PRS_EXECUTE_DFF_RESET;
 488:Generated_Source\PSoC5/PRS.c ****                 }
 489:Generated_Source\PSoC5/PRS.c ****             #else
 490:Generated_Source\PSoC5/PRS.c ****                 PRS_EXECUTE_DFF_RESET;
 491:Generated_Source\PSoC5/PRS.c ****             #endif  /* (PRS_WAKEUP_BEHAVIOUR == PRS__RESUMEWORK) */
 492:Generated_Source\PSoC5/PRS.c **** 
 493:Generated_Source\PSoC5/PRS.c ****         #else
 494:Generated_Source\PSoC5/PRS.c **** 
 495:Generated_Source\PSoC5/PRS.c ****             CY_SET_REG16(PRS_SEED_PTR, seed);
 323              		.loc 1 495 0
 324 000a 044A     		ldr	r2, .L20
 325 000c FB88     		ldrh	r3, [r7, #6]	@ movhi
 326 000e 1380     		strh	r3, [r2]	@ movhi
 496:Generated_Source\PSoC5/PRS.c **** 
 497:Generated_Source\PSoC5/PRS.c ****         #endif  /* End (PRS_TIME_MULTIPLEXING_ENABLE) */
 498:Generated_Source\PSoC5/PRS.c ****     }
 327              		.loc 1 498 0
 328 0010 00BF     		nop
 329 0012 0C37     		adds	r7, r7, #12
 330              		.cfi_def_cfa_offset 4
 331 0014 BD46     		mov	sp, r7
 332              		.cfi_def_cfa_register 13
 333              		@ sp needed
 334 0016 80BC     		pop	{r7}
 335              		.cfi_restore 7
 336              		.cfi_def_cfa_offset 0
 337 0018 7047     		bx	lr
 338              	.L21:
 339 001a 00BF     		.align	2
 340              	.L20:
 341 001c 08650040 		.word	1073767688
 342              		.cfi_endproc
 343              	.LFE6:
 344              		.size	PRS_WriteSeed, .-PRS_WriteSeed
 345              		.section	.text.PRS_ReadPolynomial,"ax",%progbits
 346              		.align	2
 347              		.global	PRS_ReadPolynomial
 348              		.thumb
 349              		.thumb_func
 350              		.type	PRS_ReadPolynomial, %function
 351              	PRS_ReadPolynomial:
 352              	.LFB7:
 499:Generated_Source\PSoC5/PRS.c **** 
 500:Generated_Source\PSoC5/PRS.c **** 
 501:Generated_Source\PSoC5/PRS.c ****     /*******************************************************************************
 502:Generated_Source\PSoC5/PRS.c ****     * Function Name: PRS_ReadPolynomial
 503:Generated_Source\PSoC5/PRS.c ****     ********************************************************************************
ARM GAS  C:\Users\merce\AppData\Local\Temp\ccTdsbCf.s 			page 16


 504:Generated_Source\PSoC5/PRS.c ****     *
 505:Generated_Source\PSoC5/PRS.c ****     * Summary:
 506:Generated_Source\PSoC5/PRS.c ****     *  Reads PRS polynomial value.
 507:Generated_Source\PSoC5/PRS.c ****     *
 508:Generated_Source\PSoC5/PRS.c ****     * Parameters:
 509:Generated_Source\PSoC5/PRS.c ****     *  void
 510:Generated_Source\PSoC5/PRS.c ****     *
 511:Generated_Source\PSoC5/PRS.c ****     * Return:
 512:Generated_Source\PSoC5/PRS.c ****     *  Returns PRS polynomial value.
 513:Generated_Source\PSoC5/PRS.c ****     *
 514:Generated_Source\PSoC5/PRS.c ****     *******************************************************************************/
 515:Generated_Source\PSoC5/PRS.c ****     uint16 PRS_ReadPolynomial(void)
 516:Generated_Source\PSoC5/PRS.c ****                                 
 517:Generated_Source\PSoC5/PRS.c ****     {
 353              		.loc 1 517 0
 354              		.cfi_startproc
 355              		@ args = 0, pretend = 0, frame = 0
 356              		@ frame_needed = 1, uses_anonymous_args = 0
 357              		@ link register save eliminated.
 358 0000 80B4     		push	{r7}
 359              		.cfi_def_cfa_offset 4
 360              		.cfi_offset 7, -4
 361 0002 00AF     		add	r7, sp, #0
 362              		.cfi_def_cfa_register 7
 518:Generated_Source\PSoC5/PRS.c ****         /* Reads polynomial */
 519:Generated_Source\PSoC5/PRS.c ****         #if (PRS_TIME_MULTIPLEXING_ENABLE)
 520:Generated_Source\PSoC5/PRS.c **** 
 521:Generated_Source\PSoC5/PRS.c ****             uint16 polynomial;
 522:Generated_Source\PSoC5/PRS.c **** 
 523:Generated_Source\PSoC5/PRS.c ****             #if (PRS_PRS_SIZE <= 16u)          /* 16 bits PRS */
 524:Generated_Source\PSoC5/PRS.c ****                 polynomial = ((uint16) PRS_POLYNOM_A__D1_REG) << 8u;
 525:Generated_Source\PSoC5/PRS.c ****                 polynomial |= (PRS_POLYNOM_A__D0_REG);
 526:Generated_Source\PSoC5/PRS.c **** 
 527:Generated_Source\PSoC5/PRS.c ****             #elif (PRS_PRS_SIZE <= 24u)        /* 24 bits PRS */
 528:Generated_Source\PSoC5/PRS.c ****                 polynomial = ((uint32) PRS_POLYNOM_B__D1_REG) << 16u;
 529:Generated_Source\PSoC5/PRS.c ****                 polynomial |= ((uint32) PRS_POLYNOM_B__D0_REG) << 8u;
 530:Generated_Source\PSoC5/PRS.c ****                 polynomial |= PRS_POLYNOM_A__D0_REG;
 531:Generated_Source\PSoC5/PRS.c **** 
 532:Generated_Source\PSoC5/PRS.c ****             #else                                           /* 32 bits PRS */
 533:Generated_Source\PSoC5/PRS.c ****                 polynomial = ((uint32) PRS_POLYNOM_B__D1_REG) << 24u;
 534:Generated_Source\PSoC5/PRS.c ****                 polynomial |= ((uint32) PRS_POLYNOM_A__D1_REG) << 16u;
 535:Generated_Source\PSoC5/PRS.c ****                 polynomial |= ((uint32) PRS_POLYNOM_B__D0_REG) << 8u;
 536:Generated_Source\PSoC5/PRS.c ****                 polynomial |= PRS_POLYNOM_A__D0_REG;
 537:Generated_Source\PSoC5/PRS.c **** 
 538:Generated_Source\PSoC5/PRS.c ****             #endif  /* End (PRS_PRS_SIZE <= 32u) */
 539:Generated_Source\PSoC5/PRS.c **** 
 540:Generated_Source\PSoC5/PRS.c ****             return polynomial;
 541:Generated_Source\PSoC5/PRS.c **** 
 542:Generated_Source\PSoC5/PRS.c ****         #else
 543:Generated_Source\PSoC5/PRS.c **** 
 544:Generated_Source\PSoC5/PRS.c ****             return CY_GET_REG16(PRS_POLYNOM_PTR);
 363              		.loc 1 544 0
 364 0004 034B     		ldr	r3, .L24
 365 0006 1B88     		ldrh	r3, [r3]	@ movhi
 366 0008 9BB2     		uxth	r3, r3
 545:Generated_Source\PSoC5/PRS.c **** 
 546:Generated_Source\PSoC5/PRS.c ****         #endif  /* End (PRS_TIME_MULTIPLEXING_ENABLE) */
ARM GAS  C:\Users\merce\AppData\Local\Temp\ccTdsbCf.s 			page 17


 547:Generated_Source\PSoC5/PRS.c ****     }
 367              		.loc 1 547 0
 368 000a 1846     		mov	r0, r3
 369 000c BD46     		mov	sp, r7
 370              		.cfi_def_cfa_register 13
 371              		@ sp needed
 372 000e 80BC     		pop	{r7}
 373              		.cfi_restore 7
 374              		.cfi_def_cfa_offset 0
 375 0010 7047     		bx	lr
 376              	.L25:
 377 0012 00BF     		.align	2
 378              	.L24:
 379 0014 28650040 		.word	1073767720
 380              		.cfi_endproc
 381              	.LFE7:
 382              		.size	PRS_ReadPolynomial, .-PRS_ReadPolynomial
 383              		.section	.text.PRS_WritePolynomial,"ax",%progbits
 384              		.align	2
 385              		.global	PRS_WritePolynomial
 386              		.thumb
 387              		.thumb_func
 388              		.type	PRS_WritePolynomial, %function
 389              	PRS_WritePolynomial:
 390              	.LFB8:
 548:Generated_Source\PSoC5/PRS.c **** 
 549:Generated_Source\PSoC5/PRS.c **** 
 550:Generated_Source\PSoC5/PRS.c ****     /*******************************************************************************
 551:Generated_Source\PSoC5/PRS.c ****     * Function Name: PRS_WritePolynomial
 552:Generated_Source\PSoC5/PRS.c ****     ********************************************************************************
 553:Generated_Source\PSoC5/PRS.c ****     *
 554:Generated_Source\PSoC5/PRS.c ****     * Summary:
 555:Generated_Source\PSoC5/PRS.c ****     *  Writes PRS polynomial value.
 556:Generated_Source\PSoC5/PRS.c ****     *
 557:Generated_Source\PSoC5/PRS.c ****     * Parameters:
 558:Generated_Source\PSoC5/PRS.c ****     *  polynomial:  PRS polynomial.
 559:Generated_Source\PSoC5/PRS.c ****     *
 560:Generated_Source\PSoC5/PRS.c ****     * Return:
 561:Generated_Source\PSoC5/PRS.c ****     *  void
 562:Generated_Source\PSoC5/PRS.c ****     *
 563:Generated_Source\PSoC5/PRS.c ****     * Side Effects:
 564:Generated_Source\PSoC5/PRS.c ****     *  The polynomial value is cut according to mask = 2^(Resolution) - 1.
 565:Generated_Source\PSoC5/PRS.c ****     *  For example if PRS Resolution is 14 bits the mask value is:
 566:Generated_Source\PSoC5/PRS.c ****     *  mask = 2^(14) - 1 = 0x3FFFu.
 567:Generated_Source\PSoC5/PRS.c ****     *  The polynomial value = 0xFFFFu is cut:
 568:Generated_Source\PSoC5/PRS.c ****     *  polynomial & mask = 0xFFFFu & 0x3FFFu = 0x3FFFu.
 569:Generated_Source\PSoC5/PRS.c ****     *
 570:Generated_Source\PSoC5/PRS.c ****     *******************************************************************************/
 571:Generated_Source\PSoC5/PRS.c ****     void PRS_WritePolynomial(uint16 polynomial)
 572:Generated_Source\PSoC5/PRS.c ****                                           
 573:Generated_Source\PSoC5/PRS.c ****     {
 391              		.loc 1 573 0
 392              		.cfi_startproc
 393              		@ args = 0, pretend = 0, frame = 8
 394              		@ frame_needed = 1, uses_anonymous_args = 0
 395              		@ link register save eliminated.
 396 0000 80B4     		push	{r7}
ARM GAS  C:\Users\merce\AppData\Local\Temp\ccTdsbCf.s 			page 18


 397              		.cfi_def_cfa_offset 4
 398              		.cfi_offset 7, -4
 399 0002 83B0     		sub	sp, sp, #12
 400              		.cfi_def_cfa_offset 16
 401 0004 00AF     		add	r7, sp, #0
 402              		.cfi_def_cfa_register 7
 403 0006 0346     		mov	r3, r0
 404 0008 FB80     		strh	r3, [r7, #6]	@ movhi
 574:Generated_Source\PSoC5/PRS.c ****         /* Mask polynomial to cut unused bits */
 575:Generated_Source\PSoC5/PRS.c ****         polynomial &= PRS_MASK;
 576:Generated_Source\PSoC5/PRS.c **** 
 577:Generated_Source\PSoC5/PRS.c ****         /* Write polynomial */
 578:Generated_Source\PSoC5/PRS.c ****         #if (PRS_TIME_MULTIPLEXING_ENABLE)
 579:Generated_Source\PSoC5/PRS.c **** 
 580:Generated_Source\PSoC5/PRS.c ****             #if (PRS_PRS_SIZE <= 16u)          /* 16 bits PRS */
 581:Generated_Source\PSoC5/PRS.c **** 
 582:Generated_Source\PSoC5/PRS.c ****                 PRS_POLYNOM_A__D1_REG = HI8(polynomial);
 583:Generated_Source\PSoC5/PRS.c ****                 PRS_POLYNOM_A__D0_REG = LO8(polynomial);
 584:Generated_Source\PSoC5/PRS.c **** 
 585:Generated_Source\PSoC5/PRS.c ****             #elif (PRS_PRS_SIZE <= 24u)        /* 24 bits PRS */
 586:Generated_Source\PSoC5/PRS.c ****                 PRS_POLYNOM_B__D1_REG = LO8(HI16(polynomial));
 587:Generated_Source\PSoC5/PRS.c ****                 PRS_POLYNOM_B__D0_REG = HI8(polynomial);
 588:Generated_Source\PSoC5/PRS.c ****                 PRS_POLYNOM_A__D0_REG = LO8(polynomial);
 589:Generated_Source\PSoC5/PRS.c **** 
 590:Generated_Source\PSoC5/PRS.c ****             #else                                           /* 32 bits PRS */
 591:Generated_Source\PSoC5/PRS.c ****                 PRS_POLYNOM_B__D1_REG = HI8(HI16(polynomial));
 592:Generated_Source\PSoC5/PRS.c ****                 PRS_POLYNOM_A__D1_REG = LO8(HI16(polynomial));
 593:Generated_Source\PSoC5/PRS.c ****                 PRS_POLYNOM_B__D0_REG = HI8(polynomial);
 594:Generated_Source\PSoC5/PRS.c ****                 PRS_POLYNOM_A__D0_REG = LO8(polynomial);
 595:Generated_Source\PSoC5/PRS.c **** 
 596:Generated_Source\PSoC5/PRS.c ****             #endif  /* End (PRS_PRS_SIZE <= 32u) */
 597:Generated_Source\PSoC5/PRS.c **** 
 598:Generated_Source\PSoC5/PRS.c ****             /* Resets triggers */
 599:Generated_Source\PSoC5/PRS.c ****             #if (PRS_WAKEUP_BEHAVIOUR == PRS__RESUMEWORK)
 600:Generated_Source\PSoC5/PRS.c ****                 if((PRS_sleepState & PRS_NORMAL_SEQUENCE) != 0u)
 601:Generated_Source\PSoC5/PRS.c ****                 {
 602:Generated_Source\PSoC5/PRS.c ****                     PRS_EXECUTE_DFF_RESET;
 603:Generated_Source\PSoC5/PRS.c ****                 }
 604:Generated_Source\PSoC5/PRS.c ****             #else
 605:Generated_Source\PSoC5/PRS.c ****                 PRS_EXECUTE_DFF_RESET;
 606:Generated_Source\PSoC5/PRS.c ****             #endif  /* (PRS_WAKEUP_BEHAVIOUR == PRS__RESUMEWORK) */
 607:Generated_Source\PSoC5/PRS.c **** 
 608:Generated_Source\PSoC5/PRS.c ****         #else
 609:Generated_Source\PSoC5/PRS.c **** 
 610:Generated_Source\PSoC5/PRS.c ****             CY_SET_REG16(PRS_POLYNOM_PTR, polynomial);
 405              		.loc 1 610 0
 406 000a 044A     		ldr	r2, .L27
 407 000c FB88     		ldrh	r3, [r7, #6]	@ movhi
 408 000e 1380     		strh	r3, [r2]	@ movhi
 611:Generated_Source\PSoC5/PRS.c **** 
 612:Generated_Source\PSoC5/PRS.c ****         #endif  /* End (PRS_TIME_MULTIPLEXING_ENABLE) */
 613:Generated_Source\PSoC5/PRS.c ****     }
 409              		.loc 1 613 0
 410 0010 00BF     		nop
 411 0012 0C37     		adds	r7, r7, #12
 412              		.cfi_def_cfa_offset 4
 413 0014 BD46     		mov	sp, r7
ARM GAS  C:\Users\merce\AppData\Local\Temp\ccTdsbCf.s 			page 19


 414              		.cfi_def_cfa_register 13
 415              		@ sp needed
 416 0016 80BC     		pop	{r7}
 417              		.cfi_restore 7
 418              		.cfi_def_cfa_offset 0
 419 0018 7047     		bx	lr
 420              	.L28:
 421 001a 00BF     		.align	2
 422              	.L27:
 423 001c 28650040 		.word	1073767720
 424              		.cfi_endproc
 425              	.LFE8:
 426              		.size	PRS_WritePolynomial, .-PRS_WritePolynomial
 427              		.text
 428              	.Letext0:
 429              		.file 2 "Generated_Source\\PSoC5\\cytypes.h"
 430              		.file 3 "Generated_Source\\PSoC5\\PRS.h"